(dp1
S'ind'
p2
(lp3
(I0
I0
tp4
a(I1
I1
tp5
a(I2
I2
tp6
a(I3
I4
tp7
a(I4
I5
tp8
a(I5
I6
tp9
a(I6
I7
tp10
a(I7
I8
tp11
a(I8
I9
tp12
a(I9
I10
tp13
a(I10
I11
tp14
a(I11
I12
tp15
a(I12
I13
tp16
a(I13
I14
tp17
a(I14
I15
tp18
a(I15
I16
tp19
a(I16
I17
tp20
a(I17
I18
tp21
a(I18
I19
tp22
a(I19
I20
tp23
a(I20
I21
tp24
a(I21
I24
tp25
a(I22
I25
tp26
a(I23
I29
tp27
a(I24
I30
tp28
a(I25
I31
tp29
a(I26
I32
tp30
a(I27
I33
tp31
a(I28
I34
tp32
a(I29
I35
tp33
a(I30
I36
tp34
a(I31
I37
tp35
a(I32
I38
tp36
a(I33
I39
tp37
a(I34
I40
tp38
a(I35
I41
tp39
a(I36
I42
tp40
a(I37
I43
tp41
a(I38
I44
tp42
a(I39
I45
tp43
a(I40
I46
tp44
a(I41
I47
tp45
a(I42
I48
tp46
a(I43
I49
tp47
a(I44
I51
tp48
a(I45
I52
tp49
a(I46
I53
tp50
a(I47
I54
tp51
a(I48
I55
tp52
a(I49
I56
tp53
a(I50
I57
tp54
a(I51
I58
tp55
a(I52
I59
tp56
a(I53
I60
tp57
a(I54
I61
tp58
a(I55
I62
tp59
a(I56
I63
tp60
a(I57
I64
tp61
a(I58
I65
tp62
a(I59
I66
tp63
a(I60
I67
tp64
a(I61
I68
tp65
a(I62
I69
tp66
a(I63
I70
tp67
a(I64
I72
tp68
a(I65
I73
tp69
a(I66
I74
tp70
a(I67
I75
tp71
a(I68
I77
tp72
a(I69
I79
tp73
a(I70
I83
tp74
a(I71
I84
tp75
a(I72
I85
tp76
a(I73
I86
tp77
a(I74
I87
tp78
a(I75
I88
tp79
a(I76
I89
tp80
a(I77
I90
tp81
a(I78
I91
tp82
a(I79
I92
tp83
a(I80
I94
tp84
a(I81
I95
tp85
a(I82
I96
tp86
a(I83
I98
tp87
a(I84
I99
tp88
a(I85
I100
tp89
a(I86
I101
tp90
a(I87
I102
tp91
a(I88
I103
tp92
a(I89
I104
tp93
a(I90
I105
tp94
a(I91
I106
tp95
a(I92
I116
tp96
a(I93
I117
tp97
a(I94
I118
tp98
a(I95
I119
tp99
a(I96
I120
tp100
a(I97
I121
tp101
a(I98
I122
tp102
a(I99
I123
tp103
a(I100
I124
tp104
a(I101
I125
tp105
a(I102
I127
tp106
a(I103
I128
tp107
a(I104
I129
tp108
a(I105
I130
tp109
a(I106
I132
tp110
a(I107
I134
tp111
a(I108
I136
tp112
a(I109
I138
tp113
a(I110
I139
tp114
a(I111
I140
tp115
a(I112
I141
tp116
a(I113
I142
tp117
a(I114
I143
tp118
a(I115
I144
tp119
a(I116
I145
tp120
a(I117
I146
tp121
a(I118
I148
tp122
a(I119
I149
tp123
a(I120
I150
tp124
a(I121
I151
tp125
a(I122
I152
tp126
a(I123
I153
tp127
a(I124
I154
tp128
a(I125
I156
tp129
a(I126
I157
tp130
a(I127
I158
tp131
a(I128
I159
tp132
a(I129
I160
tp133
a(I130
I161
tp134
a(I131
I166
tp135
a(I132
I167
tp136
a(I133
I170
tp137
a(I134
I171
tp138
a(I135
I172
tp139
a(I136
I173
tp140
a(I137
I174
tp141
a(I138
I175
tp142
a(I139
I176
tp143
a(I140
I177
tp144
a(I141
I178
tp145
a(I142
I179
tp146
a(I143
I180
tp147
a(I144
I181
tp148
a(I145
I182
tp149
a(I146
I183
tp150
a(I147
I184
tp151
a(I148
I185
tp152
a(I149
I186
tp153
a(I150
I187
tp154
a(I151
I188
tp155
a(I152
I189
tp156
a(I153
I190
tp157
a(I154
I191
tp158
a(I155
I192
tp159
a(I156
I193
tp160
a(I157
I194
tp161
a(I158
I195
tp162
a(I159
I196
tp163
a(I160
I197
tp164
a(I161
I198
tp165
a(I162
I199
tp166
a(I163
I200
tp167
a(I164
I201
tp168
a(I165
I202
tp169
a(I166
I203
tp170
a(I167
I204
tp171
a(I168
I205
tp172
a(I169
I206
tp173
a(I170
I207
tp174
a(I171
I208
tp175
a(I172
I209
tp176
a(I173
I210
tp177
a(I174
I211
tp178
a(I175
I212
tp179
a(I176
I213
tp180
a(I177
I214
tp181
a(I178
I215
tp182
a(I179
I216
tp183
a(I180
I217
tp184
a(I181
I218
tp185
a(I182
I219
tp186
a(I183
I220
tp187
a(I184
I221
tp188
a(I185
I222
tp189
a(I186
I223
tp190
a(I187
I231
tp191
a(I188
I232
tp192
a(I189
I234
tp193
a(I190
I235
tp194
a(I191
I236
tp195
a(I192
I238
tp196
a(I193
I240
tp197
a(I194
I242
tp198
a(I195
I243
tp199
a(I196
I244
tp200
a(I197
I245
tp201
a(I198
I246
tp202
a(I199
I247
tp203
a(I200
I248
tp204
a(I201
I249
tp205
a(I202
I260
tp206
a(I203
I314
tp207
a(I204
I337
tp208
a(I205
I338
tp209
a(I206
I373
tp210
a(I207
I414
tp211
a(I208
I415
tp212
a(I209
I416
tp213
a(I210
I417
tp214
a(I211
I418
tp215
a(I212
I419
tp216
a(I213
I420
tp217
a(I214
I421
tp218
a(I215
I422
tp219
a(I216
I423
tp220
a(I217
I440
tp221
a(I218
I441
tp222
a(I219
I442
tp223
a(I220
I443
tp224
a(I221
I444
tp225
a(I222
I445
tp226
a(I223
I446
tp227
a(I224
I447
tp228
a(I225
I448
tp229
a(I226
I450
tp230
a(I227
I451
tp231
a(I228
I452
tp232
a(I229
I453
tp233
a(I230
I454
tp234
a(I231
I455
tp235
a(I232
I456
tp236
a(I233
I457
tp237
a(I234
I459
tp238
a(I235
I463
tp239
a(I236
I469
tp240
a(I237
I470
tp241
a(I238
I471
tp242
a(I239
I472
tp243
a(I240
I473
tp244
a(I241
I474
tp245
a(I242
I475
tp246
a(I243
I476
tp247
a(I244
I477
tp248
a(I245
I478
tp249
a(I246
I503
tp250
a(I247
I504
tp251
a(I248
I511
tp252
a(I249
I512
tp253
a(I250
I513
tp254
a(I251
I514
tp255
a(I252
I515
tp256
a(I253
I516
tp257
a(I254
I517
tp258
a(I255
I518
tp259
a(I256
I519
tp260
a(I257
I520
tp261
a(I258
I521
tp262
a(I259
I525
tp263
a(I260
I526
tp264
a(I261
I527
tp265
a(I262
I544
tp266
a(I263
I545
tp267
a(I264
I546
tp268
a(I265
I547
tp269
a(I266
I549
tp270
a(I267
I553
tp271
a(I268
I555
tp272
a(I269
I556
tp273
a(I270
I557
tp274
a(I271
I558
tp275
a(I272
I559
tp276
a(I273
I560
tp277
a(I274
I561
tp278
a(I275
I562
tp279
a(I276
I563
tp280
a(I277
I566
tp281
a(I278
I581
tp282
a(I279
I582
tp283
a(I280
I585
tp284
a(I281
I586
tp285
a(I282
I587
tp286
a(I283
I588
tp287
a(I284
I589
tp288
a(I285
I591
tp289
a(I286
I592
tp290
a(I287
I620
tp291
a(I288
I621
tp292
a(I289
I648
tp293
a(I290
I658
tp294
a(I291
I659
tp295
a(I292
I660
tp296
a(I293
I661
tp297
a(I294
I662
tp298
a(I295
I663
tp299
a(I296
I664
tp300
a(I297
I665
tp301
a(I298
I666
tp302
a(I299
I667
tp303
a(I300
I671
tp304
a(I301
I697
tp305
a(I302
I699
tp306
a(I303
I700
tp307
a(I304
I701
tp308
a(I305
I703
tp309
a(I306
I704
tp310
a(I307
I738
tp311
a(I308
I739
tp312
a(I309
I740
tp313
a(I310
I741
tp314
a(I311
I742
tp315
a(I312
I747
tp316
a(I313
I748
tp317
a(I314
I750
tp318
a(I315
I751
tp319
a(I316
I752
tp320
a(I317
I753
tp321
a(I318
I754
tp322
a(I319
I762
tp323
a(I320
I763
tp324
a(I321
I764
tp325
a(I322
I765
tp326
a(I323
I766
tp327
a(I324
I767
tp328
a(I325
I768
tp329
a(I326
I769
tp330
a(I327
I770
tp331
a(I328
I771
tp332
a(I329
I772
tp333
a(I330
I773
tp334
a(I331
I779
tp335
a(I332
I801
tp336
a(I333
I802
tp337
a(I334
I808
tp338
a(I335
I809
tp339
a(I336
I810
tp340
a(I337
I811
tp341
a(I338
I812
tp342
a(I339
I813
tp343
a(I340
I814
tp344
a(I341
I815
tp345
a(I342
I816
tp346
a(I343
I818
tp347
a(I344
I841
tp348
a(I345
I842
tp349
a(I346
I862
tp350
a(I347
I863
tp351
a(I348
I880
tp352
a(I349
I881
tp353
a(I350
I888
tp354
a(I351
I889
tp355
a(I352
I890
tp356
a(I353
I891
tp357
a(I354
I892
tp358
a(I355
I893
tp359
a(I356
I895
tp360
a(I357
I898
tp361
a(I358
I910
tp362
a(I359
I911
tp363
a(I360
I912
tp364
a(I361
I924
tp365
a(I362
I925
tp366
a(I363
I926
tp367
a(I364
I927
tp368
a(I365
I928
tp369
a(I366
I932
tp370
a(I367
I934
tp371
a(I368
I936
tp372
a(I369
I937
tp373
a(I370
I945
tp374
a(I371
I946
tp375
a(I372
I947
tp376
a(I373
I949
tp377
a(I374
I950
tp378
asS'rel'
p379
(dp380
cOrange.orange
__pickleLoaderVariable
p381
(cOrange.feature
Continuous
p382
(dp383
S'source_variable'
p384
NsS'ordered'
p385
I1
sS'var_type'
p386
I2
sS'scientific_format'
p387
I0
sS'random_generator'
p388
NsS'distributed'
p389
I0
sS'number_of_decimals'
p390
I3
sS'end_value'
p391
F0
sS'step_value'
p392
F-1
sS'default_meta_id'
p393
I0
sS'start_value'
p394
F-1
sS'adjust_decimals'
p395
I2
sS'name'
p396
S'266'
p397
stRp398
(dp399
S'get_value_from'
p400
NsbF-3.576764720492065e-05
sg381
(g382
(dp401
g384
Nsg385
I1
sg386
I2
sg387
I0
sg388
Nsg389
I0
sg390
I3
sg391
F0
sg392
F-1
sg393
I0
sg394
F-1
sg395
I2
sS'name'
p402
S'267'
p403
stRp404
(dp405
g400
NsbF0.0046990704722702503
sg381
(g382
(dp406
g384
Nsg385
I1
sg386
I2
sg387
I0
sg388
Nsg389
I0
sg390
I3
sg391
F0
sg392
F-1
sg393
I0
sg394
F-1
sg395
I2
sS'name'
p407
S'268'
p408
stRp409
(dp410
g400
NsbF0.0015834643272683024
sg381
(g382
(dp411
g384
Nsg385
I1
sg386
I2
sg387
I0
sg388
Nsg389
I0
sg390
I3
sg391
F0
sg392
F-1
sg393
I0
sg394
F-1
sg395
I2
sS'name'
p412
S'269'
p413
stRp414
(dp415
g400
NsbF0.0025308425538241863
sg381
(g382
(dp416
g384
Nsg385
I1
sg386
I2
sg387
I0
sg388
Nsg389
I0
sg390
I3
sg391
F0
sg392
F-1
sg393
I0
sg394
F-1
sg395
I2
sS'name'
p417
S'270'
p418
stRp419
(dp420
g400
NsbF-0.00027400712133385241
sg381
(g382
(dp421
g384
Nsg385
I1
sg386
I2
sg387
I0
sg388
Nsg389
I0
sg390
I3
sg391
F0
sg392
F-1
sg393
I0
sg394
F-1
sg395
I2
sS'name'
p422
S'271'
p423
stRp424
(dp425
g400
NsbF0.0017190079670399427
sg381
(g382
(dp426
g384
Nsg385
I1
sg386
I2
sg387
I0
sg388
Nsg389
I0
sg390
I3
sg391
F0
sg392
F-1
sg393
I0
sg394
F-1
sg395
I2
sS'name'
p427
S'272'
p428
stRp429
(dp430
g400
NsbF0.0019329884089529514
sg381
(g382
(dp431
g384
Nsg385
I1
sg386
I2
sg387
I0
sg388
Nsg389
I0
sg390
I3
sg391
F0
sg392
F-1
sg393
I0
sg394
F-1
sg395
I2
sS'name'
p432
S'273'
p433
stRp434
(dp435
g400
NsbF0.0017162972362712026
sg381
(g382
(dp436
g384
Nsg385
I1
sg386
I2
sg387
I0
sg388
Nsg389
I0
sg390
I3
sg391
F0
sg392
F-1
sg393
I0
sg394
F-1
sg395
I2
sS'name'
p437
S'274'
p438
stRp439
(dp440
g400
NsbF0.00014933498459868133
sg381
(g382
(dp441
g384
Nsg385
I1
sg386
I2
sg387
I0
sg388
Nsg389
I0
sg390
I3
sg391
F0
sg392
F-1
sg393
I0
sg394
F-1
sg395
I2
sS'name'
p442
S'275'
p443
stRp444
(dp445
g400
NsbF0.00014352324069477618
sg381
(g382
(dp446
g384
Nsg385
I1
sg386
I2
sg387
I0
sg388
Nsg389
I0
sg390
I3
sg391
F0
sg392
F-1
sg393
I0
sg394
F-1
sg395
I2
sS'name'
p447
S'276'
p448
stRp449
(dp450
g400
NsbF0.00040197596536017954
sg381
(g382
(dp451
g384
Nsg385
I1
sg386
I2
sg387
I0
sg388
Nsg389
I0
sg390
I3
sg391
F0
sg392
F-1
sg393
I0
sg394
F-1
sg395
I2
sS'name'
p452
S'277'
p453
stRp454
(dp455
g400
NsbF5.082461575511843e-05
sg381
(g382
(dp456
g384
Nsg385
I1
sg386
I2
sg387
I0
sg388
Nsg389
I0
sg390
I3
sg391
F0
sg392
F-1
sg393
I0
sg394
F-1
sg395
I2
sS'name'
p457
S'278'
p458
stRp459
(dp460
g400
NsbF0.00074941327329725027
sg381
(g382
(dp461
g384
Nsg385
I1
sg386
I2
sg387
I0
sg388
Nsg389
I0
sg390
I3
sg391
F0
sg392
F-1
sg393
I0
sg394
F-1
sg395
I2
sS'name'
p462
S'279'
p463
stRp464
(dp465
g400
NsbF0.0019711977802217007
sg381
(g382
(dp466
g384
Nsg385
I1
sg386
I2
sg387
I0
sg388
Nsg389
I0
sg390
I3
sg391
F0
sg392
F-1
sg393
I0
sg394
F-1
sg395
I2
sS'name'
p467
S'280'
p468
stRp469
(dp470
g400
NsbF-0.00096362177282571793
sg381
(g382
(dp471
g384
Nsg385
I1
sg386
I2
sg387
I0
sg388
Nsg389
I0
sg390
I3
sg391
F0
sg392
F-1
sg393
I0
sg394
F-1
sg395
I2
sS'name'
p472
S'281'
p473
stRp474
(dp475
g400
NsbF-0.00011110531340818852
sg381
(g382
(dp476
g384
Nsg385
I1
sg386
I2
sg387
I0
sg388
Nsg389
I0
sg390
I3
sg391
F0
sg392
F-1
sg393
I0
sg394
F-1
sg395
I2
sS'name'
p477
S'282'
p478
stRp479
(dp480
g400
NsbF0.00058186374371871352
sg381
(g382
(dp481
g384
Nsg385
I1
sg386
I2
sg387
I0
sg388
Nsg389
I0
sg390
I3
sg391
F0
sg392
F-1
sg393
I0
sg394
F-1
sg395
I2
sS'name'
p482
S'283'
p483
stRp484
(dp485
g400
NsbF0.00015819506370462477
sg381
(g382
(dp486
g384
Nsg385
I1
sg386
I2
sg387
I0
sg388
Nsg389
I0
sg390
I3
sg391
F0
sg392
F-1
sg393
I0
sg394
F-1
sg395
I2
sS'name'
p487
S'284'
p488
stRp489
(dp490
g400
NsbF0.00088857812806963921
sg381
(g382
(dp491
g384
Nsg385
I1
sg386
I2
sg387
I0
sg388
Nsg389
I0
sg390
I3
sg391
F0
sg392
F-1
sg393
I0
sg394
F-1
sg395
I2
sS'name'
p492
S'285'
p493
stRp494
(dp495
g400
NsbF0.00011260953760938719
sg381
(g382
(dp496
g384
Nsg385
I1
sg386
I2
sg387
I0
sg388
Nsg389
I0
sg390
I3
sg391
F0
sg392
F-1
sg393
I0
sg394
F-1
sg395
I2
sS'name'
p497
S'286'
p498
stRp499
(dp500
g400
NsbF0.00017008796567097306
sg381
(g382
(dp501
g384
Nsg385
I1
sg386
I2
sg387
I0
sg388
Nsg389
I0
sg390
I3
sg391
F0
sg392
F-1
sg393
I0
sg394
F-1
sg395
I2
sS'name'
p502
S'287'
p503
stRp504
(dp505
g400
NsbF0.015829959884285927
sg381
(g382
(dp506
g384
Nsg385
I1
sg386
I2
sg387
I0
sg388
Nsg389
I0
sg390
I3
sg391
F0
sg392
F-1
sg393
I0
sg394
F-1
sg395
I2
sS'name'
p507
S'288'
p508
stRp509
(dp510
g400
NsbF0.020495561882853508
sg381
(g382
(dp511
g384
Nsg385
I1
sg386
I2
sg387
I0
sg388
Nsg389
I0
sg390
I3
sg391
F0
sg392
F-1
sg393
I0
sg394
F-1
sg395
I2
sS'name'
p512
S'289'
p513
stRp514
(dp515
g400
NsbF0.0012233149027451873
sg381
(g382
(dp516
g384
Nsg385
I1
sg386
I2
sg387
I0
sg388
Nsg389
I0
sg390
I3
sg391
F0
sg392
F-1
sg393
I0
sg394
F-1
sg395
I2
sS'name'
p517
S'290'
p518
stRp519
(dp520
g400
NsbF0.02597605437040329
sg381
(g382
(dp521
g384
Nsg385
I1
sg386
I2
sg387
I0
sg388
Nsg389
I0
sg390
I3
sg391
F0
sg392
F-1
sg393
I0
sg394
F-1
sg395
I2
sS'name'
p522
S'291'
p523
stRp524
(dp525
g400
NsbF0.0093087712302803993
sg381
(g382
(dp526
g384
Nsg385
I1
sg386
I2
sg387
I0
sg388
Nsg389
I0
sg390
I3
sg391
F0
sg392
F-1
sg393
I0
sg394
F-1
sg395
I2
sS'name'
p527
S'292'
p528
stRp529
(dp530
g400
NsbF0.01135765016078949
sg381
(g382
(dp531
g384
Nsg385
I1
sg386
I2
sg387
I0
sg388
Nsg389
I0
sg390
I3
sg391
F0
sg392
F-1
sg393
I0
sg394
F-1
sg395
I2
sS'name'
p532
S'293'
p533
stRp534
(dp535
g400
NsbF0.0060485899448394775
sg381
(g382
(dp536
g384
Nsg385
I1
sg386
I2
sg387
I0
sg388
Nsg389
I0
sg390
I3
sg391
F0
sg392
F-1
sg393
I0
sg394
F-1
sg395
I2
sS'name'
p537
S'294'
p538
stRp539
(dp540
g400
NsbF0.0028747757896780968
sg381
(g382
(dp541
g384
Nsg385
I1
sg386
I2
sg387
I0
sg388
Nsg389
I0
sg390
I3
sg391
F0
sg392
F-1
sg393
I0
sg394
F-1
sg395
I2
sS'name'
p542
S'295'
p543
stRp544
(dp545
g400
NsbF0.0012324623530730605
sg381
(g382
(dp546
g384
Nsg385
I1
sg386
I2
sg387
I0
sg388
Nsg389
I0
sg390
I3
sg391
F0
sg392
F-1
sg393
I0
sg394
F-1
sg395
I2
sS'name'
p547
S'296'
p548
stRp549
(dp550
g400
NsbF0.0035931712482124567
sg381
(g382
(dp551
g384
Nsg385
I1
sg386
I2
sg387
I0
sg388
Nsg389
I0
sg390
I3
sg391
F0
sg392
F-1
sg393
I0
sg394
F-1
sg395
I2
sS'name'
p552
S'297'
p553
stRp554
(dp555
g400
NsbF0.0029379683546721935
sg381
(g382
(dp556
g384
Nsg385
I1
sg386
I2
sg387
I0
sg388
Nsg389
I0
sg390
I3
sg391
F0
sg392
F-1
sg393
I0
sg394
F-1
sg395
I2
sS'name'
p557
S'298'
p558
stRp559
(dp560
g400
NsbF0.00094583770260214806
sg381
(g382
(dp561
g384
Nsg385
I1
sg386
I2
sg387
I0
sg388
Nsg389
I0
sg390
I3
sg391
F0
sg392
F-1
sg393
I0
sg394
F-1
sg395
I2
sS'name'
p562
S'299'
p563
stRp564
(dp565
g400
NsbF2.0552863134071231e-05
sg381
(g382
(dp566
g384
Nsg385
I1
sg386
I2
sg387
I0
sg388
Nsg389
I0
sg390
I3
sg391
F0
sg392
F-1
sg393
I0
sg394
F-1
sg395
I2
sS'name'
p567
S'300'
p568
stRp569
(dp570
g400
NsbF0.01534541416913271
sg381
(g382
(dp571
g384
Nsg385
I1
sg386
I2
sg387
I0
sg388
Nsg389
I0
sg390
I3
sg391
F0
sg392
F-1
sg393
I0
sg394
F-1
sg395
I2
sS'name'
p572
S'301'
p573
stRp574
(dp575
g400
NsbF0.0023143109865486622
sg381
(g382
(dp576
g384
Nsg385
I1
sg386
I2
sg387
I0
sg388
Nsg389
I0
sg390
I3
sg391
F0
sg392
F-1
sg393
I0
sg394
F-1
sg395
I2
sS'name'
p577
S'302'
p578
stRp579
(dp580
g400
NsbF-0.00076757976785302162
sg381
(g382
(dp581
g384
Nsg385
I1
sg386
I2
sg387
I0
sg388
Nsg389
I0
sg390
I3
sg391
F0
sg392
F-1
sg393
I0
sg394
F-1
sg395
I2
sS'name'
p582
S'303'
p583
stRp584
(dp585
g400
NsbF0.0035040173679590225
sg381
(g382
(dp586
g384
Nsg385
I1
sg386
I2
sg387
I0
sg388
Nsg389
I0
sg390
I3
sg391
F0
sg392
F-1
sg393
I0
sg394
F-1
sg395
I2
sS'name'
p587
S'304'
p588
stRp589
(dp590
g400
NsbF3.1138901249505579e-05
sg381
(g382
(dp591
g384
Nsg385
I1
sg386
I2
sg387
I0
sg388
Nsg389
I0
sg390
I3
sg391
F0
sg392
F-1
sg393
I0
sg394
F-1
sg395
I2
sS'name'
p592
S'305'
p593
stRp594
(dp595
g400
NsbF0.00081081781536340714
sg381
(g382
(dp596
g384
Nsg385
I1
sg386
I2
sg387
I0
sg388
Nsg389
I0
sg390
I3
sg391
F0
sg392
F-1
sg393
I0
sg394
F-1
sg395
I2
sS'name'
p597
S'306'
p598
stRp599
(dp600
g400
NsbF-0.002191456500440836
sg381
(g382
(dp601
g384
Nsg385
I1
sg386
I2
sg387
I0
sg388
Nsg389
I0
sg390
I3
sg391
F0
sg392
F-1
sg393
I0
sg394
F-1
sg395
I2
sS'name'
p602
S'307'
p603
stRp604
(dp605
g400
NsbF0.010442682541906834
sg381
(g382
(dp606
g384
Nsg385
I1
sg386
I2
sg387
I0
sg388
Nsg389
I0
sg390
I3
sg391
F0
sg392
F-1
sg393
I0
sg394
F-1
sg395
I2
sS'name'
p607
S'308'
p608
stRp609
(dp610
g400
NsbF0.0029259761795401573
sg381
(g382
(dp611
g384
Nsg385
I1
sg386
I2
sg387
I0
sg388
Nsg389
I0
sg390
I3
sg391
F0
sg392
F-1
sg393
I0
sg394
F-1
sg395
I2
sS'name'
p612
S'309'
p613
stRp614
(dp615
g400
NsbF0.0051740934140980244
sg381
(g382
(dp616
g384
Nsg385
I1
sg386
I2
sg387
I0
sg388
Nsg389
I0
sg390
I3
sg391
F0
sg392
F-1
sg393
I0
sg394
F-1
sg395
I2
sS'name'
p617
S'310'
p618
stRp619
(dp620
g400
NsbF0.0021400658879429102
sg381
(g382
(dp621
g384
Nsg385
I1
sg386
I2
sg387
I0
sg388
Nsg389
I0
sg390
I3
sg391
F0
sg392
F-1
sg393
I0
sg394
F-1
sg395
I2
sS'name'
p622
S'311'
p623
stRp624
(dp625
g400
NsbF0.00015107262879610062
sg381
(g382
(dp626
g384
Nsg385
I1
sg386
I2
sg387
I0
sg388
Nsg389
I0
sg390
I3
sg391
F0
sg392
F-1
sg393
I0
sg394
F-1
sg395
I2
sS'name'
p627
S'312'
p628
stRp629
(dp630
g400
NsbF0.0057338406331837177
sg381
(g382
(dp631
g384
Nsg385
I1
sg386
I2
sg387
I0
sg388
Nsg389
I0
sg390
I3
sg391
F0
sg392
F-1
sg393
I0
sg394
F-1
sg395
I2
sS'name'
p632
S'313'
p633
stRp634
(dp635
g400
NsbF0.0021165534853935242
sg381
(g382
(dp636
g384
Nsg385
I1
sg386
I2
sg387
I0
sg388
Nsg389
I0
sg390
I3
sg391
F0
sg392
F-1
sg393
I0
sg394
F-1
sg395
I2
sS'name'
p637
S'314'
p638
stRp639
(dp640
g400
NsbF0.0018460674909874797
sg381
(g382
(dp641
g384
Nsg385
I1
sg386
I2
sg387
I0
sg388
Nsg389
I0
sg390
I3
sg391
F0
sg392
F-1
sg393
I0
sg394
F-1
sg395
I2
sS'name'
p642
S'315'
p643
stRp644
(dp645
g400
NsbF0.0028176256455481052
sg381
(g382
(dp646
g384
Nsg385
I1
sg386
I2
sg387
I0
sg388
Nsg389
I0
sg390
I3
sg391
F0
sg392
F-1
sg393
I0
sg394
F-1
sg395
I2
sS'name'
p647
S'316'
p648
stRp649
(dp650
g400
NsbF-0.00012769502063747495
sg381
(g382
(dp651
g384
Nsg385
I1
sg386
I2
sg387
I0
sg388
Nsg389
I0
sg390
I3
sg391
F0
sg392
F-1
sg393
I0
sg394
F-1
sg395
I2
sS'name'
p652
S'317'
p653
stRp654
(dp655
g400
NsbF0.00025403540348634124
sg381
(g382
(dp656
g384
Nsg385
I1
sg386
I2
sg387
I0
sg388
Nsg389
I0
sg390
I3
sg391
F0
sg392
F-1
sg393
I0
sg394
F-1
sg395
I2
sS'name'
p657
S'318'
p658
stRp659
(dp660
g400
NsbF0.00073572946712374687
sg381
(g382
(dp661
g384
Nsg385
I1
sg386
I2
sg387
I0
sg388
Nsg389
I0
sg390
I3
sg391
F0
sg392
F-1
sg393
I0
sg394
F-1
sg395
I2
sS'name'
p662
S'319'
p663
stRp664
(dp665
g400
NsbF0.0039307707920670509
sg381
(g382
(dp666
g384
Nsg385
I1
sg386
I2
sg387
I0
sg388
Nsg389
I0
sg390
I3
sg391
F0
sg392
F-1
sg393
I0
sg394
F-1
sg395
I2
sS'name'
p667
S'320'
p668
stRp669
(dp670
g400
NsbF0.0025230511091649532
sg381
(g382
(dp671
g384
Nsg385
I1
sg386
I2
sg387
I0
sg388
Nsg389
I0
sg390
I3
sg391
F0
sg392
F-1
sg393
I0
sg394
F-1
sg395
I2
sS'name'
p672
S'321'
p673
stRp674
(dp675
g400
NsbF0.0064843101426959038
sg381
(g382
(dp676
g384
Nsg385
I1
sg386
I2
sg387
I0
sg388
Nsg389
I0
sg390
I3
sg391
F0
sg392
F-1
sg393
I0
sg394
F-1
sg395
I2
sS'name'
p677
S'322'
p678
stRp679
(dp680
g400
NsbF-2.8688824386335909e-05
sg381
(g382
(dp681
g384
Nsg385
I1
sg386
I2
sg387
I0
sg388
Nsg389
I0
sg390
I3
sg391
F0
sg392
F-1
sg393
I0
sg394
F-1
sg395
I2
sS'name'
p682
S'323'
p683
stRp684
(dp685
g400
NsbF-0.001579560455866158
sg381
(g382
(dp686
g384
Nsg385
I1
sg386
I2
sg387
I0
sg388
Nsg389
I0
sg390
I3
sg391
F0
sg392
F-1
sg393
I0
sg394
F-1
sg395
I2
sS'name'
p687
S'324'
p688
stRp689
(dp690
g400
NsbF0.0019985118415206671
sg381
(g382
(dp691
g384
Nsg385
I1
sg386
I2
sg387
I0
sg388
Nsg389
I0
sg390
I3
sg391
F0
sg392
F-1
sg393
I0
sg394
F-1
sg395
I2
sS'name'
p692
S'325'
p693
stRp694
(dp695
g400
NsbF0.0012929262593388557
sg381
(g382
(dp696
g384
Nsg385
I1
sg386
I2
sg387
I0
sg388
Nsg389
I0
sg390
I3
sg391
F0
sg392
F-1
sg393
I0
sg394
F-1
sg395
I2
sS'name'
p697
S'326'
p698
stRp699
(dp700
g400
NsbF-0.0025354116223752499
sg381
(g382
(dp701
g384
Nsg385
I1
sg386
I2
sg387
I0
sg388
Nsg389
I0
sg390
I3
sg391
F0
sg392
F-1
sg393
I0
sg394
F-1
sg395
I2
sS'name'
p702
S'327'
p703
stRp704
(dp705
g400
NsbF-0.001003862009383738
sg381
(g382
(dp706
g384
Nsg385
I1
sg386
I2
sg387
I0
sg388
Nsg389
I0
sg390
I3
sg391
F0
sg392
F-1
sg393
I0
sg394
F-1
sg395
I2
sS'name'
p707
S'328'
p708
stRp709
(dp710
g400
NsbF0.00069741217885166407
sg381
(g382
(dp711
g384
Nsg385
I1
sg386
I2
sg387
I0
sg388
Nsg389
I0
sg390
I3
sg391
F0
sg392
F-1
sg393
I0
sg394
F-1
sg395
I2
sS'name'
p712
S'329'
p713
stRp714
(dp715
g400
NsbF-0.00048021000111475587
sg381
(g382
(dp716
g384
Nsg385
I1
sg386
I2
sg387
I0
sg388
Nsg389
I0
sg390
I3
sg391
F0
sg392
F-1
sg393
I0
sg394
F-1
sg395
I2
sS'name'
p717
S'330'
p718
stRp719
(dp720
g400
NsbF-0.00022231039474718273
sg381
(g382
(dp721
g384
Nsg385
I1
sg386
I2
sg387
I0
sg388
Nsg389
I0
sg390
I3
sg391
F0
sg392
F-1
sg393
I0
sg394
F-1
sg395
I2
sS'name'
p722
S'331'
p723
stRp724
(dp725
g400
NsbF0.00014403845125343651
sg381
(g382
(dp726
g384
Nsg385
I1
sg386
I2
sg387
I0
sg388
Nsg389
I0
sg390
I3
sg391
F0
sg392
F-1
sg393
I0
sg394
F-1
sg395
I2
sS'name'
p727
S'332'
p728
stRp729
(dp730
g400
NsbF0.010120799764990807
sg381
(g382
(dp731
g384
Nsg385
I1
sg386
I2
sg387
I0
sg388
Nsg389
I0
sg390
I3
sg391
F0
sg392
F-1
sg393
I0
sg394
F-1
sg395
I2
sS'name'
p732
S'333'
p733
stRp734
(dp735
g400
NsbF0.00017045516869984567
sg381
(g382
(dp736
g384
Nsg385
I1
sg386
I2
sg387
I0
sg388
Nsg389
I0
sg390
I3
sg391
F0
sg392
F-1
sg393
I0
sg394
F-1
sg395
I2
sS'name'
p737
S'334'
p738
stRp739
(dp740
g400
NsbF0.0030594139825552702
sg381
(g382
(dp741
g384
Nsg385
I1
sg386
I2
sg387
I0
sg388
Nsg389
I0
sg390
I3
sg391
F0
sg392
F-1
sg393
I0
sg394
F-1
sg395
I2
sS'name'
p742
S'335'
p743
stRp744
(dp745
g400
NsbF0.0041632652282714844
sg381
(g382
(dp746
g384
Nsg385
I1
sg386
I2
sg387
I0
sg388
Nsg389
I0
sg390
I3
sg391
F0
sg392
F-1
sg393
I0
sg394
F-1
sg395
I2
sS'name'
p747
S'336'
p748
stRp749
(dp750
g400
NsbF0.002235382329672575
sg381
(g382
(dp751
g384
Nsg385
I1
sg386
I2
sg387
I0
sg388
Nsg389
I0
sg390
I3
sg391
F0
sg392
F-1
sg393
I0
sg394
F-1
sg395
I2
sS'name'
p752
S'337'
p753
stRp754
(dp755
g400
NsbF0.0041109519079327583
sg381
(g382
(dp756
g384
Nsg385
I1
sg386
I2
sg387
I0
sg388
Nsg389
I0
sg390
I3
sg391
F0
sg392
F-1
sg393
I0
sg394
F-1
sg395
I2
sS'name'
p757
S'338'
p758
stRp759
(dp760
g400
NsbF0.0035041712690144777
sg381
(g382
(dp761
g384
Nsg385
I1
sg386
I2
sg387
I0
sg388
Nsg389
I0
sg390
I3
sg391
F0
sg392
F-1
sg393
I0
sg394
F-1
sg395
I2
sS'name'
p762
S'339'
p763
stRp764
(dp765
g400
NsbF0.0029884157702326775
sg381
(g382
(dp766
g384
Nsg385
I1
sg386
I2
sg387
I0
sg388
Nsg389
I0
sg390
I3
sg391
F0
sg392
F-1
sg393
I0
sg394
F-1
sg395
I2
sS'name'
p767
S'340'
p768
stRp769
(dp770
g400
NsbF-0.0019475466106086969
sg381
(g382
(dp771
g384
Nsg385
I1
sg386
I2
sg387
I0
sg388
Nsg389
I0
sg390
I3
sg391
F0
sg392
F-1
sg393
I0
sg394
F-1
sg395
I2
sS'name'
p772
S'341'
p773
stRp774
(dp775
g400
NsbF-0.0021158275194466114
sg381
(g382
(dp776
g384
Nsg385
I1
sg386
I2
sg387
I0
sg388
Nsg389
I0
sg390
I3
sg391
F0
sg392
F-1
sg393
I0
sg394
F-1
sg395
I2
sS'name'
p777
S'342'
p778
stRp779
(dp780
g400
NsbF0.00078932242467999458
sg381
(g382
(dp781
g384
Nsg385
I1
sg386
I2
sg387
I0
sg388
Nsg389
I0
sg390
I3
sg391
F0
sg392
F-1
sg393
I0
sg394
F-1
sg395
I2
sS'name'
p782
S'343'
p783
stRp784
(dp785
g400
NsbF-0.00014506050501950085
sg381
(g382
(dp786
g384
Nsg385
I1
sg386
I2
sg387
I0
sg388
Nsg389
I0
sg390
I3
sg391
F0
sg392
F-1
sg393
I0
sg394
F-1
sg395
I2
sS'name'
p787
S'344'
p788
stRp789
(dp790
g400
NsbF0.00757198641076684
sg381
(g382
(dp791
g384
Nsg385
I1
sg386
I2
sg387
I0
sg388
Nsg389
I0
sg390
I3
sg391
F0
sg392
F-1
sg393
I0
sg394
F-1
sg395
I2
sS'name'
p792
S'345'
p793
stRp794
(dp795
g400
NsbF0.0020429280120879412
sg381
(g382
(dp796
g384
Nsg385
I1
sg386
I2
sg387
I0
sg388
Nsg389
I0
sg390
I3
sg391
F0
sg392
F-1
sg393
I0
sg394
F-1
sg395
I2
sS'name'
p797
S'346'
p798
stRp799
(dp800
g400
NsbF6.7012129875365645e-05
sg381
(g382
(dp801
g384
Nsg385
I1
sg386
I2
sg387
I0
sg388
Nsg389
I0
sg390
I3
sg391
F0
sg392
F-1
sg393
I0
sg394
F-1
sg395
I2
sS'name'
p802
S'347'
p803
stRp804
(dp805
g400
NsbF-0.00019916813471354544
sg381
(g382
(dp806
g384
Nsg385
I1
sg386
I2
sg387
I0
sg388
Nsg389
I0
sg390
I3
sg391
F0
sg392
F-1
sg393
I0
sg394
F-1
sg395
I2
sS'name'
p807
S'348'
p808
stRp809
(dp810
g400
NsbF0.0041638743132352829
sg381
(g382
(dp811
g384
Nsg385
I1
sg386
I2
sg387
I0
sg388
Nsg389
I0
sg390
I3
sg391
F0
sg392
F-1
sg393
I0
sg394
F-1
sg395
I2
sS'name'
p812
S'349'
p813
stRp814
(dp815
g400
NsbF0.00036416822695173323
sg381
(g382
(dp816
g384
Nsg385
I1
sg386
I2
sg387
I0
sg388
Nsg389
I0
sg390
I3
sg391
F0
sg392
F-1
sg393
I0
sg394
F-1
sg395
I2
sS'name'
p817
S'350'
p818
stRp819
(dp820
g400
NsbF0.0022230572067201138
sg381
(g382
(dp821
g384
Nsg385
I1
sg386
I2
sg387
I0
sg388
Nsg389
I0
sg390
I3
sg391
F0
sg392
F-1
sg393
I0
sg394
F-1
sg395
I2
sS'name'
p822
S'351'
p823
stRp824
(dp825
g400
NsbF0.0016313769156113267
sg381
(g382
(dp826
g384
Nsg385
I1
sg386
I2
sg387
I0
sg388
Nsg389
I0
sg390
I3
sg391
F0
sg392
F-1
sg393
I0
sg394
F-1
sg395
I2
sS'name'
p827
S'352'
p828
stRp829
(dp830
g400
NsbF0.0050996104255318642
sg381
(g382
(dp831
g384
Nsg385
I1
sg386
I2
sg387
I0
sg388
Nsg389
I0
sg390
I3
sg391
F0
sg392
F-1
sg393
I0
sg394
F-1
sg395
I2
sS'name'
p832
S'353'
p833
stRp834
(dp835
g400
NsbF0.0016106988769024611
sg381
(g382
(dp836
g384
Nsg385
I1
sg386
I2
sg387
I0
sg388
Nsg389
I0
sg390
I3
sg391
F0
sg392
F-1
sg393
I0
sg394
F-1
sg395
I2
sS'name'
p837
S'354'
p838
stRp839
(dp840
g400
NsbF-0.002404726343229413
sg381
(g382
(dp841
g384
Nsg385
I1
sg386
I2
sg387
I0
sg388
Nsg389
I0
sg390
I3
sg391
F0
sg392
F-1
sg393
I0
sg394
F-1
sg395
I2
sS'name'
p842
S'355'
p843
stRp844
(dp845
g400
NsbF-0.0036223782226443291
sg381
(g382
(dp846
g384
Nsg385
I1
sg386
I2
sg387
I0
sg388
Nsg389
I0
sg390
I3
sg391
F0
sg392
F-1
sg393
I0
sg394
F-1
sg395
I2
sS'name'
p847
S'356'
p848
stRp849
(dp850
g400
NsbF-0.0015107889194041491
sg381
(g382
(dp851
g384
Nsg385
I1
sg386
I2
sg387
I0
sg388
Nsg389
I0
sg390
I3
sg391
F0
sg392
F-1
sg393
I0
sg394
F-1
sg395
I2
sS'name'
p852
S'357'
p853
stRp854
(dp855
g400
NsbF0
sg381
(g382
(dp856
g384
Nsg385
I1
sg386
I2
sg387
I0
sg388
Nsg389
I0
sg390
I3
sg391
F0
sg392
F-1
sg393
I0
sg394
F-1
sg395
I2
sS'name'
p857
S'358'
p858
stRp859
(dp860
g400
NsbF0.014147233217954636
sg381
(g382
(dp861
g384
Nsg385
I1
sg386
I2
sg387
I0
sg388
Nsg389
I0
sg390
I3
sg391
F0
sg392
F-1
sg393
I0
sg394
F-1
sg395
I2
sS'name'
p862
S'359'
p863
stRp864
(dp865
g400
NsbF0.0010234714718535542
sg381
(g382
(dp866
g384
Nsg385
I1
sg386
I2
sg387
I0
sg388
Nsg389
I0
sg390
I3
sg391
F0
sg392
F-1
sg393
I0
sg394
F-1
sg395
I2
sS'name'
p867
S'360'
p868
stRp869
(dp870
g400
NsbF0.00027058093110099435
sg381
(g382
(dp871
g384
Nsg385
I1
sg386
I2
sg387
I0
sg388
Nsg389
I0
sg390
I3
sg391
F0
sg392
F-1
sg393
I0
sg394
F-1
sg395
I2
sS'name'
p872
S'361'
p873
stRp874
(dp875
g400
NsbF0.0076538748107850552
sg381
(g382
(dp876
g384
Nsg385
I1
sg386
I2
sg387
I0
sg388
Nsg389
I0
sg390
I3
sg391
F0
sg392
F-1
sg393
I0
sg394
F-1
sg395
I2
sS'name'
p877
S'362'
p878
stRp879
(dp880
g400
NsbF0.0095388507470488548
sg381
(g382
(dp881
g384
Nsg385
I1
sg386
I2
sg387
I0
sg388
Nsg389
I0
sg390
I3
sg391
F0
sg392
F-1
sg393
I0
sg394
F-1
sg395
I2
sS'name'
p882
S'363'
p883
stRp884
(dp885
g400
NsbF0.011441756039857864
sg381
(g382
(dp886
g384
Nsg385
I1
sg386
I2
sg387
I0
sg388
Nsg389
I0
sg390
I3
sg391
F0
sg392
F-1
sg393
I0
sg394
F-1
sg395
I2
sS'name'
p887
S'364'
p888
stRp889
(dp890
g400
NsbF0.0019059614278376102
sg381
(g382
(dp891
g384
Nsg385
I1
sg386
I2
sg387
I0
sg388
Nsg389
I0
sg390
I3
sg391
F0
sg392
F-1
sg393
I0
sg394
F-1
sg395
I2
sS'name'
p892
S'365'
p893
stRp894
(dp895
g400
NsbF-0.00066738214809447527
sg381
(g382
(dp896
g384
Nsg385
I1
sg386
I2
sg387
I0
sg388
Nsg389
I0
sg390
I3
sg391
F0
sg392
F-1
sg393
I0
sg394
F-1
sg395
I2
sS'name'
p897
S'366'
p898
stRp899
(dp900
g400
NsbF0.0070801498368382454
sg381
(g382
(dp901
g384
Nsg385
I1
sg386
I2
sg387
I0
sg388
Nsg389
I0
sg390
I3
sg391
F0
sg392
F-1
sg393
I0
sg394
F-1
sg395
I2
sS'name'
p902
S'367'
p903
stRp904
(dp905
g400
NsbF0.0020716472063213587
sg381
(g382
(dp906
g384
Nsg385
I1
sg386
I2
sg387
I0
sg388
Nsg389
I0
sg390
I3
sg391
F0
sg392
F-1
sg393
I0
sg394
F-1
sg395
I2
sS'name'
p907
S'368'
p908
stRp909
(dp910
g400
NsbF0.0026797647587954998
sg381
(g382
(dp911
g384
Nsg385
I1
sg386
I2
sg387
I0
sg388
Nsg389
I0
sg390
I3
sg391
F0
sg392
F-1
sg393
I0
sg394
F-1
sg395
I2
sS'name'
p912
S'369'
p913
stRp914
(dp915
g400
NsbF0.0029707178473472595
sg381
(g382
(dp916
g384
Nsg385
I1
sg386
I2
sg387
I0
sg388
Nsg389
I0
sg390
I3
sg391
F0
sg392
F-1
sg393
I0
sg394
F-1
sg395
I2
sS'name'
p917
S'370'
p918
stRp919
(dp920
g400
NsbF-3.3399999665562063e-05
sg381
(g382
(dp921
g384
Nsg385
I1
sg386
I2
sg387
I0
sg388
Nsg389
I0
sg390
I3
sg391
F0
sg392
F-1
sg393
I0
sg394
F-1
sg395
I2
sS'name'
p922
S'371'
p923
stRp924
(dp925
g400
NsbF0.0067397942766547203
sg381
(g382
(dp926
g384
Nsg385
I1
sg386
I2
sg387
I0
sg388
Nsg389
I0
sg390
I3
sg391
F0
sg392
F-1
sg393
I0
sg394
F-1
sg395
I2
sS'name'
p927
S'372'
p928
stRp929
(dp930
g400
NsbF-0.00038101582322269678
sg381
(g382
(dp931
g384
Nsg385
I1
sg386
I2
sg387
I0
sg388
Nsg389
I0
sg390
I3
sg391
F0
sg392
F-1
sg393
I0
sg394
F-1
sg395
I2
sS'name'
p932
S'373'
p933
stRp934
(dp935
g400
NsbF0.0058518815785646439
sg381
(g382
(dp936
g384
Nsg385
I1
sg386
I2
sg387
I0
sg388
Nsg389
I0
sg390
I3
sg391
F0
sg392
F-1
sg393
I0
sg394
F-1
sg395
I2
sS'name'
p937
S'374'
p938
stRp939
(dp940
g400
NsbF0.0062534185126423836
sg381
(g382
(dp941
g384
Nsg385
I1
sg386
I2
sg387
I0
sg388
Nsg389
I0
sg390
I3
sg391
F0
sg392
F-1
sg393
I0
sg394
F-1
sg395
I2
sS'name'
p942
S'0'
stRp943
(dp944
g400
NsbF0.0057518049143254757
sg381
(g382
(dp945
g384
Nsg385
I1
sg386
I2
sg387
I0
sg388
Nsg389
I0
sg390
I3
sg391
F0
sg392
F-1
sg393
I0
sg394
F-1
sg395
I2
sS'name'
p946
S'1'
stRp947
(dp948
g400
NsbF0.021615343168377876
sg381
(g382
(dp949
g384
Nsg385
I1
sg386
I2
sg387
I0
sg388
Nsg389
I0
sg390
I3
sg391
F0
sg392
F-1
sg393
I0
sg394
F-1
sg395
I2
sS'name'
p950
S'2'
stRp951
(dp952
g400
NsbF0.010001968592405319
sg381
(g382
(dp953
g384
Nsg385
I1
sg386
I2
sg387
I0
sg388
Nsg389
I0
sg390
I3
sg391
F0
sg392
F-1
sg393
I0
sg394
F-1
sg395
I2
sS'name'
p954
S'3'
stRp955
(dp956
g400
NsbF0.007299469318240881
sg381
(g382
(dp957
g384
Nsg385
I1
sg386
I2
sg387
I0
sg388
Nsg389
I0
sg390
I3
sg391
F0
sg392
F-1
sg393
I0
sg394
F-1
sg395
I2
sS'name'
p958
S'4'
stRp959
(dp960
g400
NsbF0.014938334003090858
sg381
(g382
(dp961
g384
Nsg385
I1
sg386
I2
sg387
I0
sg388
Nsg389
I0
sg390
I3
sg391
F0
sg392
F-1
sg393
I0
sg394
F-1
sg395
I2
sS'name'
p962
S'5'
stRp963
(dp964
g400
NsbF0.01501804031431675
sg381
(g382
(dp965
g384
Nsg385
I1
sg386
I2
sg387
I0
sg388
Nsg389
I0
sg390
I3
sg391
F0
sg392
F-1
sg393
I0
sg394
F-1
sg395
I2
sS'name'
p966
S'6'
stRp967
(dp968
g400
NsbF0.010613317601382732
sg381
(g382
(dp969
g384
Nsg385
I1
sg386
I2
sg387
I0
sg388
Nsg389
I0
sg390
I3
sg391
F0
sg392
F-1
sg393
I0
sg394
F-1
sg395
I2
sS'name'
p970
S'7'
stRp971
(dp972
g400
NsbF0.010419056750833988
sg381
(g382
(dp973
g384
Nsg385
I1
sg386
I2
sg387
I0
sg388
Nsg389
I0
sg390
I3
sg391
F0
sg392
F-1
sg393
I0
sg394
F-1
sg395
I2
sS'name'
p974
S'8'
stRp975
(dp976
g400
NsbF0.0099503872916102409
sg381
(g382
(dp977
g384
Nsg385
I1
sg386
I2
sg387
I0
sg388
Nsg389
I0
sg390
I3
sg391
F0
sg392
F-1
sg393
I0
sg394
F-1
sg395
I2
sS'name'
p978
S'9'
stRp979
(dp980
g400
NsbF0.0095494240522384644
sg381
(g382
(dp981
g384
Nsg385
I1
sg386
I2
sg387
I0
sg388
Nsg389
I0
sg390
I3
sg391
F0
sg392
F-1
sg393
I0
sg394
F-1
sg395
I2
sS'name'
p982
S'10'
p983
stRp984
(dp985
g400
NsbF0.0098345382139086723
sg381
(g382
(dp986
g384
Nsg385
I1
sg386
I2
sg387
I0
sg388
Nsg389
I0
sg390
I3
sg391
F0
sg392
F-1
sg393
I0
sg394
F-1
sg395
I2
sS'name'
p987
S'11'
p988
stRp989
(dp990
g400
NsbF0.0035289323423057795
sg381
(g382
(dp991
g384
Nsg385
I1
sg386
I2
sg387
I0
sg388
Nsg389
I0
sg390
I3
sg391
F0
sg392
F-1
sg393
I0
sg394
F-1
sg395
I2
sS'name'
p992
S'12'
p993
stRp994
(dp995
g400
NsbF0.0075841890648007393
sg381
(g382
(dp996
g384
Nsg385
I1
sg386
I2
sg387
I0
sg388
Nsg389
I0
sg390
I3
sg391
F0
sg392
F-1
sg393
I0
sg394
F-1
sg395
I2
sS'name'
p997
S'13'
p998
stRp999
(dp1000
g400
NsbF0.024571929126977921
sg381
(g382
(dp1001
g384
Nsg385
I1
sg386
I2
sg387
I0
sg388
Nsg389
I0
sg390
I3
sg391
F0
sg392
F-1
sg393
I0
sg394
F-1
sg395
I2
sS'name'
p1002
S'14'
p1003
stRp1004
(dp1005
g400
NsbF0.014174588955938816
sg381
(g382
(dp1006
g384
Nsg385
I1
sg386
I2
sg387
I0
sg388
Nsg389
I0
sg390
I3
sg391
F0
sg392
F-1
sg393
I0
sg394
F-1
sg395
I2
sS'name'
p1007
S'15'
p1008
stRp1009
(dp1010
g400
NsbF0.0090081905946135521
sg381
(g382
(dp1011
g384
Nsg385
I1
sg386
I2
sg387
I0
sg388
Nsg389
I0
sg390
I3
sg391
F0
sg392
F-1
sg393
I0
sg394
F-1
sg395
I2
sS'name'
p1012
S'16'
p1013
stRp1014
(dp1015
g400
NsbF0.0093106068670749664
sg381
(g382
(dp1016
g384
Nsg385
I1
sg386
I2
sg387
I0
sg388
Nsg389
I0
sg390
I3
sg391
F0
sg392
F-1
sg393
I0
sg394
F-1
sg395
I2
sS'name'
p1017
S'17'
p1018
stRp1019
(dp1020
g400
NsbF0.0067807608284056187
sg381
(g382
(dp1021
g384
Nsg385
I1
sg386
I2
sg387
I0
sg388
Nsg389
I0
sg390
I3
sg391
F0
sg392
F-1
sg393
I0
sg394
F-1
sg395
I2
sS'name'
p1022
S'18'
p1023
stRp1024
(dp1025
g400
NsbF0.0080276979133486748
sg381
(g382
(dp1026
g384
Nsg385
I1
sg386
I2
sg387
I0
sg388
Nsg389
I0
sg390
I3
sg391
F0
sg392
F-1
sg393
I0
sg394
F-1
sg395
I2
sS'name'
p1027
S'19'
p1028
stRp1029
(dp1030
g400
NsbF0.0012597324093803763
sg381
(g382
(dp1031
g384
Nsg385
I1
sg386
I2
sg387
I0
sg388
Nsg389
I0
sg390
I3
sg391
F0
sg392
F-1
sg393
I0
sg394
F-1
sg395
I2
sS'name'
p1032
S'20'
p1033
stRp1034
(dp1035
g400
NsbF0.0051245279610157013
sg381
(g382
(dp1036
g384
Nsg385
I1
sg386
I2
sg387
I0
sg388
Nsg389
I0
sg390
I3
sg391
F0
sg392
F-1
sg393
I0
sg394
F-1
sg395
I2
sS'name'
p1037
S'21'
p1038
stRp1039
(dp1040
g400
NsbF0.009631558321416378
sg381
(g382
(dp1041
g384
Nsg385
I1
sg386
I2
sg387
I0
sg388
Nsg389
I0
sg390
I3
sg391
F0
sg392
F-1
sg393
I0
sg394
F-1
sg395
I2
sS'name'
p1042
S'22'
p1043
stRp1044
(dp1045
g400
NsbF0.012774696573615074
sg381
(g382
(dp1046
g384
Nsg385
I1
sg386
I2
sg387
I0
sg388
Nsg389
I0
sg390
I3
sg391
F0
sg392
F-1
sg393
I0
sg394
F-1
sg395
I2
sS'name'
p1047
S'23'
p1048
stRp1049
(dp1050
g400
NsbF0.019475866109132767
sg381
(g382
(dp1051
g384
Nsg385
I1
sg386
I2
sg387
I0
sg388
Nsg389
I0
sg390
I3
sg391
F0
sg392
F-1
sg393
I0
sg394
F-1
sg395
I2
sS'name'
p1052
S'24'
p1053
stRp1054
(dp1055
g400
NsbF0.0093690063804388046
sg381
(g382
(dp1056
g384
Nsg385
I1
sg386
I2
sg387
I0
sg388
Nsg389
I0
sg390
I3
sg391
F0
sg392
F-1
sg393
I0
sg394
F-1
sg395
I2
sS'name'
p1057
S'25'
p1058
stRp1059
(dp1060
g400
NsbF0.0093265930190682411
sg381
(g382
(dp1061
g384
Nsg385
I1
sg386
I2
sg387
I0
sg388
Nsg389
I0
sg390
I3
sg391
F0
sg392
F-1
sg393
I0
sg394
F-1
sg395
I2
sS'name'
p1062
S'26'
p1063
stRp1064
(dp1065
g400
NsbF0.0085394624620676041
sg381
(g382
(dp1066
g384
Nsg385
I1
sg386
I2
sg387
I0
sg388
Nsg389
I0
sg390
I3
sg391
F0
sg392
F-1
sg393
I0
sg394
F-1
sg395
I2
sS'name'
p1067
S'27'
p1068
stRp1069
(dp1070
g400
NsbF0.0050347829237580299
sg381
(g382
(dp1071
g384
Nsg385
I1
sg386
I2
sg387
I0
sg388
Nsg389
I0
sg390
I3
sg391
F0
sg392
F-1
sg393
I0
sg394
F-1
sg395
I2
sS'name'
p1072
S'28'
p1073
stRp1074
(dp1075
g400
NsbF0.0071543147787451744
sg381
(g382
(dp1076
g384
Nsg385
I1
sg386
I2
sg387
I0
sg388
Nsg389
I0
sg390
I3
sg391
F0
sg392
F-1
sg393
I0
sg394
F-1
sg395
I2
sS'name'
p1077
S'29'
p1078
stRp1079
(dp1080
g400
NsbF0.0082758823409676552
sg381
(g382
(dp1081
g384
Nsg385
I1
sg386
I2
sg387
I0
sg388
Nsg389
I0
sg390
I3
sg391
F0
sg392
F-1
sg393
I0
sg394
F-1
sg395
I2
sS'name'
p1082
S'30'
p1083
stRp1084
(dp1085
g400
NsbF0.0057357661426067352
sg381
(g382
(dp1086
g384
Nsg385
I1
sg386
I2
sg387
I0
sg388
Nsg389
I0
sg390
I3
sg391
F0
sg392
F-1
sg393
I0
sg394
F-1
sg395
I2
sS'name'
p1087
S'31'
p1088
stRp1089
(dp1090
g400
NsbF0.0063014854677021503
sg381
(g382
(dp1091
g384
Nsg385
I1
sg386
I2
sg387
I0
sg388
Nsg389
I0
sg390
I3
sg391
F0
sg392
F-1
sg393
I0
sg394
F-1
sg395
I2
sS'name'
p1092
S'32'
p1093
stRp1094
(dp1095
g400
NsbF0.011442402377724648
sg381
(g382
(dp1096
g384
Nsg385
I1
sg386
I2
sg387
I0
sg388
Nsg389
I0
sg390
I3
sg391
F0
sg392
F-1
sg393
I0
sg394
F-1
sg395
I2
sS'name'
p1097
S'33'
p1098
stRp1099
(dp1100
g400
NsbF0.00041976966895163059
sg381
(g382
(dp1101
g384
Nsg385
I1
sg386
I2
sg387
I0
sg388
Nsg389
I0
sg390
I3
sg391
F0
sg392
F-1
sg393
I0
sg394
F-1
sg395
I2
sS'name'
p1102
S'34'
p1103
stRp1104
(dp1105
g400
NsbF0.0017575952224433422
sg381
(g382
(dp1106
g384
Nsg385
I1
sg386
I2
sg387
I0
sg388
Nsg389
I0
sg390
I3
sg391
F0
sg392
F-1
sg393
I0
sg394
F-1
sg395
I2
sS'name'
p1107
S'35'
p1108
stRp1109
(dp1110
g400
NsbF0.0061161639168858528
sg381
(g382
(dp1111
g384
Nsg385
I1
sg386
I2
sg387
I0
sg388
Nsg389
I0
sg390
I3
sg391
F0
sg392
F-1
sg393
I0
sg394
F-1
sg395
I2
sS'name'
p1112
S'36'
p1113
stRp1114
(dp1115
g400
NsbF0.0099441446363925934
sg381
(g382
(dp1116
g384
Nsg385
I1
sg386
I2
sg387
I0
sg388
Nsg389
I0
sg390
I3
sg391
F0
sg392
F-1
sg393
I0
sg394
F-1
sg395
I2
sS'name'
p1117
S'37'
p1118
stRp1119
(dp1120
g400
NsbF0.0072071710601449013
sg381
(g382
(dp1121
g384
Nsg385
I1
sg386
I2
sg387
I0
sg388
Nsg389
I0
sg390
I3
sg391
F0
sg392
F-1
sg393
I0
sg394
F-1
sg395
I2
sS'name'
p1122
S'38'
p1123
stRp1124
(dp1125
g400
NsbF0.011490819044411182
sg381
(g382
(dp1126
g384
Nsg385
I1
sg386
I2
sg387
I0
sg388
Nsg389
I0
sg390
I3
sg391
F0
sg392
F-1
sg393
I0
sg394
F-1
sg395
I2
sS'name'
p1127
S'39'
p1128
stRp1129
(dp1130
g400
NsbF0.021265080198645592
sg381
(g382
(dp1131
g384
Nsg385
I1
sg386
I2
sg387
I0
sg388
Nsg389
I0
sg390
I3
sg391
F0
sg392
F-1
sg393
I0
sg394
F-1
sg395
I2
sS'name'
p1132
S'40'
p1133
stRp1134
(dp1135
g400
NsbF0.01070617139339447
sg381
(g382
(dp1136
g384
Nsg385
I1
sg386
I2
sg387
I0
sg388
Nsg389
I0
sg390
I3
sg391
F0
sg392
F-1
sg393
I0
sg394
F-1
sg395
I2
sS'name'
p1137
S'41'
p1138
stRp1139
(dp1140
g400
NsbF0.0088487202301621437
sg381
(g382
(dp1141
g384
Nsg385
I1
sg386
I2
sg387
I0
sg388
Nsg389
I0
sg390
I3
sg391
F0
sg392
F-1
sg393
I0
sg394
F-1
sg395
I2
sS'name'
p1142
S'42'
p1143
stRp1144
(dp1145
g400
NsbF0.0084308218210935593
sg381
(g382
(dp1146
g384
Nsg385
I1
sg386
I2
sg387
I0
sg388
Nsg389
I0
sg390
I3
sg391
F0
sg392
F-1
sg393
I0
sg394
F-1
sg395
I2
sS'name'
p1147
S'43'
p1148
stRp1149
(dp1150
g400
NsbF0.011500153690576553
sg381
(g382
(dp1151
g384
Nsg385
I1
sg386
I2
sg387
I0
sg388
Nsg389
I0
sg390
I3
sg391
F0
sg392
F-1
sg393
I0
sg394
F-1
sg395
I2
sS'name'
p1152
S'44'
p1153
stRp1154
(dp1155
g400
NsbF0.036626394838094711
sg381
(g382
(dp1156
g384
Nsg385
I1
sg386
I2
sg387
I0
sg388
Nsg389
I0
sg390
I3
sg391
F0
sg392
F-1
sg393
I0
sg394
F-1
sg395
I2
sS'name'
p1157
S'45'
p1158
stRp1159
(dp1160
g400
NsbF0.0077594630420207977
sg381
(g382
(dp1161
g384
Nsg385
I1
sg386
I2
sg387
I0
sg388
Nsg389
I0
sg390
I3
sg391
F0
sg392
F-1
sg393
I0
sg394
F-1
sg395
I2
sS'name'
p1162
S'46'
p1163
stRp1164
(dp1165
g400
NsbF0.0083736097440123558
sg381
(g382
(dp1166
g384
Nsg385
I1
sg386
I2
sg387
I0
sg388
Nsg389
I0
sg390
I3
sg391
F0
sg392
F-1
sg393
I0
sg394
F-1
sg395
I2
sS'name'
p1167
S'47'
p1168
stRp1169
(dp1170
g400
NsbF0.0084323203191161156
sg381
(g382
(dp1171
g384
Nsg385
I1
sg386
I2
sg387
I0
sg388
Nsg389
I0
sg390
I3
sg391
F0
sg392
F-1
sg393
I0
sg394
F-1
sg395
I2
sS'name'
p1172
S'48'
p1173
stRp1174
(dp1175
g400
NsbF0.0057683587074279785
sg381
(g382
(dp1176
g384
Nsg385
I1
sg386
I2
sg387
I0
sg388
Nsg389
I0
sg390
I3
sg391
F0
sg392
F-1
sg393
I0
sg394
F-1
sg395
I2
sS'name'
p1177
S'49'
p1178
stRp1179
(dp1180
g400
NsbF0.018878964707255363
sg381
(g382
(dp1181
g384
Nsg385
I1
sg386
I2
sg387
I0
sg388
Nsg389
I0
sg390
I3
sg391
F0
sg392
F-1
sg393
I0
sg394
F-1
sg395
I2
sS'name'
p1182
S'50'
p1183
stRp1184
(dp1185
g400
NsbF0.004947989247739315
sg381
(g382
(dp1186
g384
Nsg385
I1
sg386
I2
sg387
I0
sg388
Nsg389
I0
sg390
I3
sg391
F0
sg392
F-1
sg393
I0
sg394
F-1
sg395
I2
sS'name'
p1187
S'51'
p1188
stRp1189
(dp1190
g400
NsbF0.0053366785869002342
sg381
(g382
(dp1191
g384
Nsg385
I1
sg386
I2
sg387
I0
sg388
Nsg389
I0
sg390
I3
sg391
F0
sg392
F-1
sg393
I0
sg394
F-1
sg395
I2
sS'name'
p1192
S'52'
p1193
stRp1194
(dp1195
g400
NsbF0.0068069929257035255
sg381
(g382
(dp1196
g384
Nsg385
I1
sg386
I2
sg387
I0
sg388
Nsg389
I0
sg390
I3
sg391
F0
sg392
F-1
sg393
I0
sg394
F-1
sg395
I2
sS'name'
p1197
S'53'
p1198
stRp1199
(dp1200
g400
NsbF0.0088818939402699471
sg381
(g382
(dp1201
g384
Nsg385
I1
sg386
I2
sg387
I0
sg388
Nsg389
I0
sg390
I3
sg391
F0
sg392
F-1
sg393
I0
sg394
F-1
sg395
I2
sS'name'
p1202
S'54'
p1203
stRp1204
(dp1205
g400
NsbF0.0066596376709640026
sg381
(g382
(dp1206
g384
Nsg385
I1
sg386
I2
sg387
I0
sg388
Nsg389
I0
sg390
I3
sg391
F0
sg392
F-1
sg393
I0
sg394
F-1
sg395
I2
sS'name'
p1207
S'55'
p1208
stRp1209
(dp1210
g400
NsbF0.010727468878030777
sg381
(g382
(dp1211
g384
Nsg385
I1
sg386
I2
sg387
I0
sg388
Nsg389
I0
sg390
I3
sg391
F0
sg392
F-1
sg393
I0
sg394
F-1
sg395
I2
sS'name'
p1212
S'56'
p1213
stRp1214
(dp1215
g400
NsbF0.0098138339817523956
sg381
(g382
(dp1216
g384
Nsg385
I1
sg386
I2
sg387
I0
sg388
Nsg389
I0
sg390
I3
sg391
F0
sg392
F-1
sg393
I0
sg394
F-1
sg395
I2
sS'name'
p1217
S'57'
p1218
stRp1219
(dp1220
g400
NsbF0.0083243828266859055
sg381
(g382
(dp1221
g384
Nsg385
I1
sg386
I2
sg387
I0
sg388
Nsg389
I0
sg390
I3
sg391
F0
sg392
F-1
sg393
I0
sg394
F-1
sg395
I2
sS'name'
p1222
S'58'
p1223
stRp1224
(dp1225
g400
NsbF0.012327305972576141
sg381
(g382
(dp1226
g384
Nsg385
I1
sg386
I2
sg387
I0
sg388
Nsg389
I0
sg390
I3
sg391
F0
sg392
F-1
sg393
I0
sg394
F-1
sg395
I2
sS'name'
p1227
S'59'
p1228
stRp1229
(dp1230
g400
NsbF0.015447820536792278
sg381
(g382
(dp1231
g384
Nsg385
I1
sg386
I2
sg387
I0
sg388
Nsg389
I0
sg390
I3
sg391
F0
sg392
F-1
sg393
I0
sg394
F-1
sg395
I2
sS'name'
p1232
S'60'
p1233
stRp1234
(dp1235
g400
NsbF0.0061455103568732738
sg381
(g382
(dp1236
g384
Nsg385
I1
sg386
I2
sg387
I0
sg388
Nsg389
I0
sg390
I3
sg391
F0
sg392
F-1
sg393
I0
sg394
F-1
sg395
I2
sS'name'
p1237
S'61'
p1238
stRp1239
(dp1240
g400
NsbF0.0076796123757958412
sg381
(g382
(dp1241
g384
Nsg385
I1
sg386
I2
sg387
I0
sg388
Nsg389
I0
sg390
I3
sg391
F0
sg392
F-1
sg393
I0
sg394
F-1
sg395
I2
sS'name'
p1242
S'62'
p1243
stRp1244
(dp1245
g400
NsbF0.010109172202646732
sg381
(g382
(dp1246
g384
Nsg385
I1
sg386
I2
sg387
I0
sg388
Nsg389
I0
sg390
I3
sg391
F0
sg392
F-1
sg393
I0
sg394
F-1
sg395
I2
sS'name'
p1247
S'63'
p1248
stRp1249
(dp1250
g400
NsbF0.0055074328556656837
sg381
(g382
(dp1251
g384
Nsg385
I1
sg386
I2
sg387
I0
sg388
Nsg389
I0
sg390
I3
sg391
F0
sg392
F-1
sg393
I0
sg394
F-1
sg395
I2
sS'name'
p1252
S'64'
p1253
stRp1254
(dp1255
g400
NsbF0.011356634087860584
sg381
(g382
(dp1256
g384
Nsg385
I1
sg386
I2
sg387
I0
sg388
Nsg389
I0
sg390
I3
sg391
F0
sg392
F-1
sg393
I0
sg394
F-1
sg395
I2
sS'name'
p1257
S'65'
p1258
stRp1259
(dp1260
g400
NsbF0.0086488761007785797
sg381
(g382
(dp1261
g384
Nsg385
I1
sg386
I2
sg387
I0
sg388
Nsg389
I0
sg390
I3
sg391
F0
sg392
F-1
sg393
I0
sg394
F-1
sg395
I2
sS'name'
p1262
S'66'
p1263
stRp1264
(dp1265
g400
NsbF0.0098561849445104599
sg381
(g382
(dp1266
g384
Nsg385
I1
sg386
I2
sg387
I0
sg388
Nsg389
I0
sg390
I3
sg391
F0
sg392
F-1
sg393
I0
sg394
F-1
sg395
I2
sS'name'
p1267
S'67'
p1268
stRp1269
(dp1270
g400
NsbF0.0058864452876150608
sg381
(g382
(dp1271
g384
Nsg385
I1
sg386
I2
sg387
I0
sg388
Nsg389
I0
sg390
I3
sg391
F0
sg392
F-1
sg393
I0
sg394
F-1
sg395
I2
sS'name'
p1272
S'68'
p1273
stRp1274
(dp1275
g400
NsbF0.005453367717564106
sg381
(g382
(dp1276
g384
Nsg385
I1
sg386
I2
sg387
I0
sg388
Nsg389
I0
sg390
I3
sg391
F0
sg392
F-1
sg393
I0
sg394
F-1
sg395
I2
sS'name'
p1277
S'69'
p1278
stRp1279
(dp1280
g400
NsbF0.0074165286496281624
sg381
(g382
(dp1281
g384
Nsg385
I1
sg386
I2
sg387
I0
sg388
Nsg389
I0
sg390
I3
sg391
F0
sg392
F-1
sg393
I0
sg394
F-1
sg395
I2
sS'name'
p1282
S'70'
p1283
stRp1284
(dp1285
g400
NsbF0.0036301228683441877
sg381
(g382
(dp1286
g384
Nsg385
I1
sg386
I2
sg387
I0
sg388
Nsg389
I0
sg390
I3
sg391
F0
sg392
F-1
sg393
I0
sg394
F-1
sg395
I2
sS'name'
p1287
S'71'
p1288
stRp1289
(dp1290
g400
NsbF0.0022185349371284246
sg381
(g382
(dp1291
g384
Nsg385
I1
sg386
I2
sg387
I0
sg388
Nsg389
I0
sg390
I3
sg391
F0
sg392
F-1
sg393
I0
sg394
F-1
sg395
I2
sS'name'
p1292
S'72'
p1293
stRp1294
(dp1295
g400
NsbF0.0053637404926121235
sg381
(g382
(dp1296
g384
Nsg385
I1
sg386
I2
sg387
I0
sg388
Nsg389
I0
sg390
I3
sg391
F0
sg392
F-1
sg393
I0
sg394
F-1
sg395
I2
sS'name'
p1297
S'73'
p1298
stRp1299
(dp1300
g400
NsbF0.011484191752970219
sg381
(g382
(dp1301
g384
Nsg385
I1
sg386
I2
sg387
I0
sg388
Nsg389
I0
sg390
I3
sg391
F0
sg392
F-1
sg393
I0
sg394
F-1
sg395
I2
sS'name'
p1302
S'74'
p1303
stRp1304
(dp1305
g400
NsbF0.010819521732628345
sg381
(g382
(dp1306
g384
Nsg385
I1
sg386
I2
sg387
I0
sg388
Nsg389
I0
sg390
I3
sg391
F0
sg392
F-1
sg393
I0
sg394
F-1
sg395
I2
sS'name'
p1307
S'75'
p1308
stRp1309
(dp1310
g400
NsbF0.0057316035963594913
sg381
(g382
(dp1311
g384
Nsg385
I1
sg386
I2
sg387
I0
sg388
Nsg389
I0
sg390
I3
sg391
F0
sg392
F-1
sg393
I0
sg394
F-1
sg395
I2
sS'name'
p1312
S'76'
p1313
stRp1314
(dp1315
g400
NsbF0.005147675983607769
sg381
(g382
(dp1316
g384
Nsg385
I1
sg386
I2
sg387
I0
sg388
Nsg389
I0
sg390
I3
sg391
F0
sg392
F-1
sg393
I0
sg394
F-1
sg395
I2
sS'name'
p1317
S'77'
p1318
stRp1319
(dp1320
g400
NsbF0.0064998851157724857
sg381
(g382
(dp1321
g384
Nsg385
I1
sg386
I2
sg387
I0
sg388
Nsg389
I0
sg390
I3
sg391
F0
sg392
F-1
sg393
I0
sg394
F-1
sg395
I2
sS'name'
p1322
S'78'
p1323
stRp1324
(dp1325
g400
NsbF0.0046505308710038662
sg381
(g382
(dp1326
g384
Nsg385
I1
sg386
I2
sg387
I0
sg388
Nsg389
I0
sg390
I3
sg391
F0
sg392
F-1
sg393
I0
sg394
F-1
sg395
I2
sS'name'
p1327
S'79'
p1328
stRp1329
(dp1330
g400
NsbF0.011940122582018375
sg381
(g382
(dp1331
g384
Nsg385
I1
sg386
I2
sg387
I0
sg388
Nsg389
I0
sg390
I3
sg391
F0
sg392
F-1
sg393
I0
sg394
F-1
sg395
I2
sS'name'
p1332
S'80'
p1333
stRp1334
(dp1335
g400
NsbF0.00071956147439777851
sg381
(g382
(dp1336
g384
Nsg385
I1
sg386
I2
sg387
I0
sg388
Nsg389
I0
sg390
I3
sg391
F0
sg392
F-1
sg393
I0
sg394
F-1
sg395
I2
sS'name'
p1337
S'81'
p1338
stRp1339
(dp1340
g400
NsbF0.0068381759338080883
sg381
(g382
(dp1341
g384
Nsg385
I1
sg386
I2
sg387
I0
sg388
Nsg389
I0
sg390
I3
sg391
F0
sg392
F-1
sg393
I0
sg394
F-1
sg395
I2
sS'name'
p1342
S'82'
p1343
stRp1344
(dp1345
g400
NsbF0.0038309581577777863
sg381
(g382
(dp1346
g384
Nsg385
I1
sg386
I2
sg387
I0
sg388
Nsg389
I0
sg390
I3
sg391
F0
sg392
F-1
sg393
I0
sg394
F-1
sg395
I2
sS'name'
p1347
S'83'
p1348
stRp1349
(dp1350
g400
NsbF0.0063334302976727486
sg381
(g382
(dp1351
g384
Nsg385
I1
sg386
I2
sg387
I0
sg388
Nsg389
I0
sg390
I3
sg391
F0
sg392
F-1
sg393
I0
sg394
F-1
sg395
I2
sS'name'
p1352
S'84'
p1353
stRp1354
(dp1355
g400
NsbF0.010052395053207874
sg381
(g382
(dp1356
g384
Nsg385
I1
sg386
I2
sg387
I0
sg388
Nsg389
I0
sg390
I3
sg391
F0
sg392
F-1
sg393
I0
sg394
F-1
sg395
I2
sS'name'
p1357
S'85'
p1358
stRp1359
(dp1360
g400
NsbF0.0077417222782969475
sg381
(g382
(dp1361
g384
Nsg385
I1
sg386
I2
sg387
I0
sg388
Nsg389
I0
sg390
I3
sg391
F0
sg392
F-1
sg393
I0
sg394
F-1
sg395
I2
sS'name'
p1362
S'86'
p1363
stRp1364
(dp1365
g400
NsbF0.0098841451108455658
sg381
(g382
(dp1366
g384
Nsg385
I1
sg386
I2
sg387
I0
sg388
Nsg389
I0
sg390
I3
sg391
F0
sg392
F-1
sg393
I0
sg394
F-1
sg395
I2
sS'name'
p1367
S'87'
p1368
stRp1369
(dp1370
g400
NsbF0.0081774070858955383
sg381
(g382
(dp1371
g384
Nsg385
I1
sg386
I2
sg387
I0
sg388
Nsg389
I0
sg390
I3
sg391
F0
sg392
F-1
sg393
I0
sg394
F-1
sg395
I2
sS'name'
p1372
S'88'
p1373
stRp1374
(dp1375
g400
NsbF0.012326317839324474
sg381
(g382
(dp1376
g384
Nsg385
I1
sg386
I2
sg387
I0
sg388
Nsg389
I0
sg390
I3
sg391
F0
sg392
F-1
sg393
I0
sg394
F-1
sg395
I2
sS'name'
p1377
S'89'
p1378
stRp1379
(dp1380
g400
NsbF0.011053787544369698
sg381
(g382
(dp1381
g384
Nsg385
I1
sg386
I2
sg387
I0
sg388
Nsg389
I0
sg390
I3
sg391
F0
sg392
F-1
sg393
I0
sg394
F-1
sg395
I2
sS'name'
p1382
S'90'
p1383
stRp1384
(dp1385
g400
NsbF0.0083327097818255424
sg381
(g382
(dp1386
g384
Nsg385
I1
sg386
I2
sg387
I0
sg388
Nsg389
I0
sg390
I3
sg391
F0
sg392
F-1
sg393
I0
sg394
F-1
sg395
I2
sS'name'
p1387
S'91'
p1388
stRp1389
(dp1390
g400
NsbF0.014824815094470978
sg381
(g382
(dp1391
g384
Nsg385
I1
sg386
I2
sg387
I0
sg388
Nsg389
I0
sg390
I3
sg391
F0
sg392
F-1
sg393
I0
sg394
F-1
sg395
I2
sS'name'
p1392
S'92'
p1393
stRp1394
(dp1395
g400
NsbF0.0090721333399415016
sg381
(g382
(dp1396
g384
Nsg385
I1
sg386
I2
sg387
I0
sg388
Nsg389
I0
sg390
I3
sg391
F0
sg392
F-1
sg393
I0
sg394
F-1
sg395
I2
sS'name'
p1397
S'93'
p1398
stRp1399
(dp1400
g400
NsbF0.011086082085967064
sg381
(g382
(dp1401
g384
Nsg385
I1
sg386
I2
sg387
I0
sg388
Nsg389
I0
sg390
I3
sg391
F0
sg392
F-1
sg393
I0
sg394
F-1
sg395
I2
sS'name'
p1402
S'94'
p1403
stRp1404
(dp1405
g400
NsbF0.001771116629242897
sg381
(g382
(dp1406
g384
Nsg385
I1
sg386
I2
sg387
I0
sg388
Nsg389
I0
sg390
I3
sg391
F0
sg392
F-1
sg393
I0
sg394
F-1
sg395
I2
sS'name'
p1407
S'95'
p1408
stRp1409
(dp1410
g400
NsbF-0.00082876835949718952
sg381
(g382
(dp1411
g384
Nsg385
I1
sg386
I2
sg387
I0
sg388
Nsg389
I0
sg390
I3
sg391
F0
sg392
F-1
sg393
I0
sg394
F-1
sg395
I2
sS'name'
p1412
S'96'
p1413
stRp1414
(dp1415
g400
NsbF0.003308252664282918
sg381
(g382
(dp1416
g384
Nsg385
I1
sg386
I2
sg387
I0
sg388
Nsg389
I0
sg390
I3
sg391
F0
sg392
F-1
sg393
I0
sg394
F-1
sg395
I2
sS'name'
p1417
S'97'
p1418
stRp1419
(dp1420
g400
NsbF0.0013702361611649394
sg381
(g382
(dp1421
g384
Nsg385
I1
sg386
I2
sg387
I0
sg388
Nsg389
I0
sg390
I3
sg391
F0
sg392
F-1
sg393
I0
sg394
F-1
sg395
I2
sS'name'
p1422
S'98'
p1423
stRp1424
(dp1425
g400
NsbF0.0071190036833286285
sg381
(g382
(dp1426
g384
Nsg385
I1
sg386
I2
sg387
I0
sg388
Nsg389
I0
sg390
I3
sg391
F0
sg392
F-1
sg393
I0
sg394
F-1
sg395
I2
sS'name'
p1427
S'99'
p1428
stRp1429
(dp1430
g400
NsbF0.002524249954149127
sg381
(g382
(dp1431
g384
Nsg385
I1
sg386
I2
sg387
I0
sg388
Nsg389
I0
sg390
I3
sg391
F0
sg392
F-1
sg393
I0
sg394
F-1
sg395
I2
sS'name'
p1432
S'100'
p1433
stRp1434
(dp1435
g400
NsbF-0.0021316155325621367
sg381
(g382
(dp1436
g384
Nsg385
I1
sg386
I2
sg387
I0
sg388
Nsg389
I0
sg390
I3
sg391
F0
sg392
F-1
sg393
I0
sg394
F-1
sg395
I2
sS'name'
p1437
S'101'
p1438
stRp1439
(dp1440
g400
NsbF0.0090543515980243683
sg381
(g382
(dp1441
g384
Nsg385
I1
sg386
I2
sg387
I0
sg388
Nsg389
I0
sg390
I3
sg391
F0
sg392
F-1
sg393
I0
sg394
F-1
sg395
I2
sS'name'
p1442
S'102'
p1443
stRp1444
(dp1445
g400
NsbF0.0076218307949602604
sg381
(g382
(dp1446
g384
Nsg385
I1
sg386
I2
sg387
I0
sg388
Nsg389
I0
sg390
I3
sg391
F0
sg392
F-1
sg393
I0
sg394
F-1
sg395
I2
sS'name'
p1447
S'103'
p1448
stRp1449
(dp1450
g400
NsbF0.0039784582331776619
sg381
(g382
(dp1451
g384
Nsg385
I1
sg386
I2
sg387
I0
sg388
Nsg389
I0
sg390
I3
sg391
F0
sg392
F-1
sg393
I0
sg394
F-1
sg395
I2
sS'name'
p1452
S'104'
p1453
stRp1454
(dp1455
g400
NsbF0.008113345131278038
sg381
(g382
(dp1456
g384
Nsg385
I1
sg386
I2
sg387
I0
sg388
Nsg389
I0
sg390
I3
sg391
F0
sg392
F-1
sg393
I0
sg394
F-1
sg395
I2
sS'name'
p1457
S'105'
p1458
stRp1459
(dp1460
g400
NsbF0.0062950057908892632
sg381
(g382
(dp1461
g384
Nsg385
I1
sg386
I2
sg387
I0
sg388
Nsg389
I0
sg390
I3
sg391
F0
sg392
F-1
sg393
I0
sg394
F-1
sg395
I2
sS'name'
p1462
S'106'
p1463
stRp1464
(dp1465
g400
NsbF0.009651700034737587
sg381
(g382
(dp1466
g384
Nsg385
I1
sg386
I2
sg387
I0
sg388
Nsg389
I0
sg390
I3
sg391
F0
sg392
F-1
sg393
I0
sg394
F-1
sg395
I2
sS'name'
p1467
S'107'
p1468
stRp1469
(dp1470
g400
NsbF0.0097584659233689308
sg381
(g382
(dp1471
g384
Nsg385
I1
sg386
I2
sg387
I0
sg388
Nsg389
I0
sg390
I3
sg391
F0
sg392
F-1
sg393
I0
sg394
F-1
sg395
I2
sS'name'
p1472
S'108'
p1473
stRp1474
(dp1475
g400
NsbF0.011368862353265285
sg381
(g382
(dp1476
g384
Nsg385
I1
sg386
I2
sg387
I0
sg388
Nsg389
I0
sg390
I3
sg391
F0
sg392
F-1
sg393
I0
sg394
F-1
sg395
I2
sS'name'
p1477
S'109'
p1478
stRp1479
(dp1480
g400
NsbF0.014676640741527081
sg381
(g382
(dp1481
g384
Nsg385
I1
sg386
I2
sg387
I0
sg388
Nsg389
I0
sg390
I3
sg391
F0
sg392
F-1
sg393
I0
sg394
F-1
sg395
I2
sS'name'
p1482
S'110'
p1483
stRp1484
(dp1485
g400
NsbF0.011092350818216801
sg381
(g382
(dp1486
g384
Nsg385
I1
sg386
I2
sg387
I0
sg388
Nsg389
I0
sg390
I3
sg391
F0
sg392
F-1
sg393
I0
sg394
F-1
sg395
I2
sS'name'
p1487
S'111'
p1488
stRp1489
(dp1490
g400
NsbF0.0043496228754520416
sg381
(g382
(dp1491
g384
Nsg385
I1
sg386
I2
sg387
I0
sg388
Nsg389
I0
sg390
I3
sg391
F0
sg392
F-1
sg393
I0
sg394
F-1
sg395
I2
sS'name'
p1492
S'112'
p1493
stRp1494
(dp1495
g400
NsbF0.013161386363208294
sg381
(g382
(dp1496
g384
Nsg385
I1
sg386
I2
sg387
I0
sg388
Nsg389
I0
sg390
I3
sg391
F0
sg392
F-1
sg393
I0
sg394
F-1
sg395
I2
sS'name'
p1497
S'113'
p1498
stRp1499
(dp1500
g400
NsbF0.0083091463893651962
sg381
(g382
(dp1501
g384
Nsg385
I1
sg386
I2
sg387
I0
sg388
Nsg389
I0
sg390
I3
sg391
F0
sg392
F-1
sg393
I0
sg394
F-1
sg395
I2
sS'name'
p1502
S'114'
p1503
stRp1504
(dp1505
g400
NsbF0.00078218051930889487
sg381
(g382
(dp1506
g384
Nsg385
I1
sg386
I2
sg387
I0
sg388
Nsg389
I0
sg390
I3
sg391
F0
sg392
F-1
sg393
I0
sg394
F-1
sg395
I2
sS'name'
p1507
S'115'
p1508
stRp1509
(dp1510
g400
NsbF0.0043638609349727631
sg381
(g382
(dp1511
g384
Nsg385
I1
sg386
I2
sg387
I0
sg388
Nsg389
I0
sg390
I3
sg391
F0
sg392
F-1
sg393
I0
sg394
F-1
sg395
I2
sS'name'
p1512
S'116'
p1513
stRp1514
(dp1515
g400
NsbF0.01574418693780899
sg381
(g382
(dp1516
g384
Nsg385
I1
sg386
I2
sg387
I0
sg388
Nsg389
I0
sg390
I3
sg391
F0
sg392
F-1
sg393
I0
sg394
F-1
sg395
I2
sS'name'
p1517
S'117'
p1518
stRp1519
(dp1520
g400
NsbF0.013415182940661907
sg381
(g382
(dp1521
g384
Nsg385
I1
sg386
I2
sg387
I0
sg388
Nsg389
I0
sg390
I3
sg391
F0
sg392
F-1
sg393
I0
sg394
F-1
sg395
I2
sS'name'
p1522
S'118'
p1523
stRp1524
(dp1525
g400
NsbF0.0028095848392695189
sg381
(g382
(dp1526
g384
Nsg385
I1
sg386
I2
sg387
I0
sg388
Nsg389
I0
sg390
I3
sg391
F0
sg392
F-1
sg393
I0
sg394
F-1
sg395
I2
sS'name'
p1527
S'119'
p1528
stRp1529
(dp1530
g400
NsbF0.0092197321355342865
sg381
(g382
(dp1531
g384
Nsg385
I1
sg386
I2
sg387
I0
sg388
Nsg389
I0
sg390
I3
sg391
F0
sg392
F-1
sg393
I0
sg394
F-1
sg395
I2
sS'name'
p1532
S'120'
p1533
stRp1534
(dp1535
g400
NsbF0.0074444161728024483
sg381
(g382
(dp1536
g384
Nsg385
I1
sg386
I2
sg387
I0
sg388
Nsg389
I0
sg390
I3
sg391
F0
sg392
F-1
sg393
I0
sg394
F-1
sg395
I2
sS'name'
p1537
S'121'
p1538
stRp1539
(dp1540
g400
NsbF0.017493532970547676
sg381
(g382
(dp1541
g384
Nsg385
I1
sg386
I2
sg387
I0
sg388
Nsg389
I0
sg390
I3
sg391
F0
sg392
F-1
sg393
I0
sg394
F-1
sg395
I2
sS'name'
p1542
S'122'
p1543
stRp1544
(dp1545
g400
NsbF0.0043699648231267929
sg381
(g382
(dp1546
g384
Nsg385
I1
sg386
I2
sg387
I0
sg388
Nsg389
I0
sg390
I3
sg391
F0
sg392
F-1
sg393
I0
sg394
F-1
sg395
I2
sS'name'
p1547
S'123'
p1548
stRp1549
(dp1550
g400
NsbF0.003247987711802125
sg381
(g382
(dp1551
g384
Nsg385
I1
sg386
I2
sg387
I0
sg388
Nsg389
I0
sg390
I3
sg391
F0
sg392
F-1
sg393
I0
sg394
F-1
sg395
I2
sS'name'
p1552
S'124'
p1553
stRp1554
(dp1555
g400
NsbF0.0058617508038878441
sg381
(g382
(dp1556
g384
Nsg385
I1
sg386
I2
sg387
I0
sg388
Nsg389
I0
sg390
I3
sg391
F0
sg392
F-1
sg393
I0
sg394
F-1
sg395
I2
sS'name'
p1557
S'125'
p1558
stRp1559
(dp1560
g400
NsbF0.0034097346942871809
sg381
(g382
(dp1561
g384
Nsg385
I1
sg386
I2
sg387
I0
sg388
Nsg389
I0
sg390
I3
sg391
F0
sg392
F-1
sg393
I0
sg394
F-1
sg395
I2
sS'name'
p1562
S'126'
p1563
stRp1564
(dp1565
g400
NsbF0.0055283033289015293
sg381
(g382
(dp1566
g384
Nsg385
I1
sg386
I2
sg387
I0
sg388
Nsg389
I0
sg390
I3
sg391
F0
sg392
F-1
sg393
I0
sg394
F-1
sg395
I2
sS'name'
p1567
S'127'
p1568
stRp1569
(dp1570
g400
NsbF0.013794181868433952
sg381
(g382
(dp1571
g384
Nsg385
I1
sg386
I2
sg387
I0
sg388
Nsg389
I0
sg390
I3
sg391
F0
sg392
F-1
sg393
I0
sg394
F-1
sg395
I2
sS'name'
p1572
S'128'
p1573
stRp1574
(dp1575
g400
NsbF0.0043377387337386608
sg381
(g382
(dp1576
g384
Nsg385
I1
sg386
I2
sg387
I0
sg388
Nsg389
I0
sg390
I3
sg391
F0
sg392
F-1
sg393
I0
sg394
F-1
sg395
I2
sS'name'
p1577
S'129'
p1578
stRp1579
(dp1580
g400
NsbF0.01238847803324461
sg381
(g382
(dp1581
g384
Nsg385
I1
sg386
I2
sg387
I0
sg388
Nsg389
I0
sg390
I3
sg391
F0
sg392
F-1
sg393
I0
sg394
F-1
sg395
I2
sS'name'
p1582
S'130'
p1583
stRp1584
(dp1585
g400
NsbF0.015353980474174023
sg381
(g382
(dp1586
g384
Nsg385
I1
sg386
I2
sg387
I0
sg388
Nsg389
I0
sg390
I3
sg391
F0
sg392
F-1
sg393
I0
sg394
F-1
sg395
I2
sS'name'
p1587
S'131'
p1588
stRp1589
(dp1590
g400
NsbF0.0053540789522230625
sg381
(g382
(dp1591
g384
Nsg385
I1
sg386
I2
sg387
I0
sg388
Nsg389
I0
sg390
I3
sg391
F0
sg392
F-1
sg393
I0
sg394
F-1
sg395
I2
sS'name'
p1592
S'132'
p1593
stRp1594
(dp1595
g400
NsbF0.0090940995141863823
sg381
(g382
(dp1596
g384
Nsg385
I1
sg386
I2
sg387
I0
sg388
Nsg389
I0
sg390
I3
sg391
F0
sg392
F-1
sg393
I0
sg394
F-1
sg395
I2
sS'name'
p1597
S'133'
p1598
stRp1599
(dp1600
g400
NsbF-0.00091207143850624561
sg381
(g382
(dp1601
g384
Nsg385
I1
sg386
I2
sg387
I0
sg388
Nsg389
I0
sg390
I3
sg391
F0
sg392
F-1
sg393
I0
sg394
F-1
sg395
I2
sS'name'
p1602
S'134'
p1603
stRp1604
(dp1605
g400
NsbF0.0018400365952402353
sg381
(g382
(dp1606
g384
Nsg385
I1
sg386
I2
sg387
I0
sg388
Nsg389
I0
sg390
I3
sg391
F0
sg392
F-1
sg393
I0
sg394
F-1
sg395
I2
sS'name'
p1607
S'135'
p1608
stRp1609
(dp1610
g400
NsbF0.0049024969339370728
sg381
(g382
(dp1611
g384
Nsg385
I1
sg386
I2
sg387
I0
sg388
Nsg389
I0
sg390
I3
sg391
F0
sg392
F-1
sg393
I0
sg394
F-1
sg395
I2
sS'name'
p1612
S'136'
p1613
stRp1614
(dp1615
g400
NsbF-0.0011230307864025235
sg381
(g382
(dp1616
g384
Nsg385
I1
sg386
I2
sg387
I0
sg388
Nsg389
I0
sg390
I3
sg391
F0
sg392
F-1
sg393
I0
sg394
F-1
sg395
I2
sS'name'
p1617
S'137'
p1618
stRp1619
(dp1620
g400
NsbF0.0052214409224689007
sg381
(g382
(dp1621
g384
Nsg385
I1
sg386
I2
sg387
I0
sg388
Nsg389
I0
sg390
I3
sg391
F0
sg392
F-1
sg393
I0
sg394
F-1
sg395
I2
sS'name'
p1622
S'138'
p1623
stRp1624
(dp1625
g400
NsbF0.006373280193656683
sg381
(g382
(dp1626
g384
Nsg385
I1
sg386
I2
sg387
I0
sg388
Nsg389
I0
sg390
I3
sg391
F0
sg392
F-1
sg393
I0
sg394
F-1
sg395
I2
sS'name'
p1627
S'139'
p1628
stRp1629
(dp1630
g400
NsbF0.01343146525323391
sg381
(g382
(dp1631
g384
Nsg385
I1
sg386
I2
sg387
I0
sg388
Nsg389
I0
sg390
I3
sg391
F0
sg392
F-1
sg393
I0
sg394
F-1
sg395
I2
sS'name'
p1632
S'140'
p1633
stRp1634
(dp1635
g400
NsbF0.0018708755960687995
sg381
(g382
(dp1636
g384
Nsg385
I1
sg386
I2
sg387
I0
sg388
Nsg389
I0
sg390
I3
sg391
F0
sg392
F-1
sg393
I0
sg394
F-1
sg395
I2
sS'name'
p1637
S'141'
p1638
stRp1639
(dp1640
g400
NsbF-0.00077700079418718815
sg381
(g382
(dp1641
g384
Nsg385
I1
sg386
I2
sg387
I0
sg388
Nsg389
I0
sg390
I3
sg391
F0
sg392
F-1
sg393
I0
sg394
F-1
sg395
I2
sS'name'
p1642
S'142'
p1643
stRp1644
(dp1645
g400
NsbF0.0047936462797224522
sg381
(g382
(dp1646
g384
Nsg385
I1
sg386
I2
sg387
I0
sg388
Nsg389
I0
sg390
I3
sg391
F0
sg392
F-1
sg393
I0
sg394
F-1
sg395
I2
sS'name'
p1647
S'143'
p1648
stRp1649
(dp1650
g400
NsbF0.010651894845068455
sg381
(g382
(dp1651
g384
Nsg385
I1
sg386
I2
sg387
I0
sg388
Nsg389
I0
sg390
I3
sg391
F0
sg392
F-1
sg393
I0
sg394
F-1
sg395
I2
sS'name'
p1652
S'144'
p1653
stRp1654
(dp1655
g400
NsbF0.018239676952362061
sg381
(g382
(dp1656
g384
Nsg385
I1
sg386
I2
sg387
I0
sg388
Nsg389
I0
sg390
I3
sg391
F0
sg392
F-1
sg393
I0
sg394
F-1
sg395
I2
sS'name'
p1657
S'145'
p1658
stRp1659
(dp1660
g400
NsbF0.0010161221725866199
sg381
(g382
(dp1661
g384
Nsg385
I1
sg386
I2
sg387
I0
sg388
Nsg389
I0
sg390
I3
sg391
F0
sg392
F-1
sg393
I0
sg394
F-1
sg395
I2
sS'name'
p1662
S'146'
p1663
stRp1664
(dp1665
g400
NsbF0
sg381
(g382
(dp1666
g384
Nsg385
I1
sg386
I2
sg387
I0
sg388
Nsg389
I0
sg390
I3
sg391
F0
sg392
F-1
sg393
I0
sg394
F-1
sg395
I2
sS'name'
p1667
S'147'
p1668
stRp1669
(dp1670
g400
NsbF0.0052185608074069023
sg381
(g382
(dp1671
g384
Nsg385
I1
sg386
I2
sg387
I0
sg388
Nsg389
I0
sg390
I3
sg391
F0
sg392
F-1
sg393
I0
sg394
F-1
sg395
I2
sS'name'
p1672
S'148'
p1673
stRp1674
(dp1675
g400
NsbF0.0012760634999722242
sg381
(g382
(dp1676
g384
Nsg385
I1
sg386
I2
sg387
I0
sg388
Nsg389
I0
sg390
I3
sg391
F0
sg392
F-1
sg393
I0
sg394
F-1
sg395
I2
sS'name'
p1677
S'149'
p1678
stRp1679
(dp1680
g400
NsbF0.0034886177163571119
sg381
(g382
(dp1681
g384
Nsg385
I1
sg386
I2
sg387
I0
sg388
Nsg389
I0
sg390
I3
sg391
F0
sg392
F-1
sg393
I0
sg394
F-1
sg395
I2
sS'name'
p1682
S'150'
p1683
stRp1684
(dp1685
g400
NsbF0
sg381
(g382
(dp1686
g384
Nsg385
I1
sg386
I2
sg387
I0
sg388
Nsg389
I0
sg390
I3
sg391
F0
sg392
F-1
sg393
I0
sg394
F-1
sg395
I2
sS'name'
p1687
S'151'
p1688
stRp1689
(dp1690
g400
NsbF0.0015520000597462058
sg381
(g382
(dp1691
g384
Nsg385
I1
sg386
I2
sg387
I0
sg388
Nsg389
I0
sg390
I3
sg391
F0
sg392
F-1
sg393
I0
sg394
F-1
sg395
I2
sS'name'
p1692
S'152'
p1693
stRp1694
(dp1695
g400
NsbF0
sg381
(g382
(dp1696
g384
Nsg385
I1
sg386
I2
sg387
I0
sg388
Nsg389
I0
sg390
I3
sg391
F0
sg392
F-1
sg393
I0
sg394
F-1
sg395
I2
sS'name'
p1697
S'153'
p1698
stRp1699
(dp1700
g400
NsbF0.0020320634357631207
sg381
(g382
(dp1701
g384
Nsg385
I1
sg386
I2
sg387
I0
sg388
Nsg389
I0
sg390
I3
sg391
F0
sg392
F-1
sg393
I0
sg394
F-1
sg395
I2
sS'name'
p1702
S'154'
p1703
stRp1704
(dp1705
g400
NsbF-0.0003661740047391504
sg381
(g382
(dp1706
g384
Nsg385
I1
sg386
I2
sg387
I0
sg388
Nsg389
I0
sg390
I3
sg391
F0
sg392
F-1
sg393
I0
sg394
F-1
sg395
I2
sS'name'
p1707
S'155'
p1708
stRp1709
(dp1710
g400
NsbF0.0013283244334161282
sg381
(g382
(dp1711
g384
Nsg385
I1
sg386
I2
sg387
I0
sg388
Nsg389
I0
sg390
I3
sg391
F0
sg392
F-1
sg393
I0
sg394
F-1
sg395
I2
sS'name'
p1712
S'156'
p1713
stRp1714
(dp1715
g400
NsbF0.014386351220309734
sg381
(g382
(dp1716
g384
Nsg385
I1
sg386
I2
sg387
I0
sg388
Nsg389
I0
sg390
I3
sg391
F0
sg392
F-1
sg393
I0
sg394
F-1
sg395
I2
sS'name'
p1717
S'157'
p1718
stRp1719
(dp1720
g400
NsbF0.022288894280791283
sg381
(g382
(dp1721
g384
Nsg385
I1
sg386
I2
sg387
I0
sg388
Nsg389
I0
sg390
I3
sg391
F0
sg392
F-1
sg393
I0
sg394
F-1
sg395
I2
sS'name'
p1722
S'158'
p1723
stRp1724
(dp1725
g400
NsbF0.0045233541168272495
sg381
(g382
(dp1726
g384
Nsg385
I1
sg386
I2
sg387
I0
sg388
Nsg389
I0
sg390
I3
sg391
F0
sg392
F-1
sg393
I0
sg394
F-1
sg395
I2
sS'name'
p1727
S'159'
p1728
stRp1729
(dp1730
g400
NsbF0.01075204461812973
sg381
(g382
(dp1731
g384
Nsg385
I1
sg386
I2
sg387
I0
sg388
Nsg389
I0
sg390
I3
sg391
F0
sg392
F-1
sg393
I0
sg394
F-1
sg395
I2
sS'name'
p1732
S'160'
p1733
stRp1734
(dp1735
g400
NsbF0.0203902218490839
sg381
(g382
(dp1736
g384
Nsg385
I1
sg386
I2
sg387
I0
sg388
Nsg389
I0
sg390
I3
sg391
F0
sg392
F-1
sg393
I0
sg394
F-1
sg395
I2
sS'name'
p1737
S'161'
p1738
stRp1739
(dp1740
g400
NsbF0.02958279475569725
sg381
(g382
(dp1741
g384
Nsg385
I1
sg386
I2
sg387
I0
sg388
Nsg389
I0
sg390
I3
sg391
F0
sg392
F-1
sg393
I0
sg394
F-1
sg395
I2
sS'name'
p1742
S'162'
p1743
stRp1744
(dp1745
g400
NsbF0.011389357037842274
sg381
(g382
(dp1746
g384
Nsg385
I1
sg386
I2
sg387
I0
sg388
Nsg389
I0
sg390
I3
sg391
F0
sg392
F-1
sg393
I0
sg394
F-1
sg395
I2
sS'name'
p1747
S'163'
p1748
stRp1749
(dp1750
g400
NsbF0.011605130508542061
sg381
(g382
(dp1751
g384
Nsg385
I1
sg386
I2
sg387
I0
sg388
Nsg389
I0
sg390
I3
sg391
F0
sg392
F-1
sg393
I0
sg394
F-1
sg395
I2
sS'name'
p1752
S'164'
p1753
stRp1754
(dp1755
g400
NsbF0.015016737394034863
sg381
(g382
(dp1756
g384
Nsg385
I1
sg386
I2
sg387
I0
sg388
Nsg389
I0
sg390
I3
sg391
F0
sg392
F-1
sg393
I0
sg394
F-1
sg395
I2
sS'name'
p1757
S'165'
p1758
stRp1759
(dp1760
g400
NsbF0.020497364923357964
sg381
(g382
(dp1761
g384
Nsg385
I1
sg386
I2
sg387
I0
sg388
Nsg389
I0
sg390
I3
sg391
F0
sg392
F-1
sg393
I0
sg394
F-1
sg395
I2
sS'name'
p1762
S'166'
p1763
stRp1764
(dp1765
g400
NsbF0.011695080436766148
sg381
(g382
(dp1766
g384
Nsg385
I1
sg386
I2
sg387
I0
sg388
Nsg389
I0
sg390
I3
sg391
F0
sg392
F-1
sg393
I0
sg394
F-1
sg395
I2
sS'name'
p1767
S'167'
p1768
stRp1769
(dp1770
g400
NsbF0.0056364559568464756
sg381
(g382
(dp1771
g384
Nsg385
I1
sg386
I2
sg387
I0
sg388
Nsg389
I0
sg390
I3
sg391
F0
sg392
F-1
sg393
I0
sg394
F-1
sg395
I2
sS'name'
p1772
S'168'
p1773
stRp1774
(dp1775
g400
NsbF0.0039604613557457924
sg381
(g382
(dp1776
g384
Nsg385
I1
sg386
I2
sg387
I0
sg388
Nsg389
I0
sg390
I3
sg391
F0
sg392
F-1
sg393
I0
sg394
F-1
sg395
I2
sS'name'
p1777
S'169'
p1778
stRp1779
(dp1780
g400
NsbF0.012880647554993629
sg381
(g382
(dp1781
g384
Nsg385
I1
sg386
I2
sg387
I0
sg388
Nsg389
I0
sg390
I3
sg391
F0
sg392
F-1
sg393
I0
sg394
F-1
sg395
I2
sS'name'
p1782
S'170'
p1783
stRp1784
(dp1785
g400
NsbF0.017592743039131165
sg381
(g382
(dp1786
g384
Nsg385
I1
sg386
I2
sg387
I0
sg388
Nsg389
I0
sg390
I3
sg391
F0
sg392
F-1
sg393
I0
sg394
F-1
sg395
I2
sS'name'
p1787
S'171'
p1788
stRp1789
(dp1790
g400
NsbF0.040756233036518097
sg381
(g382
(dp1791
g384
Nsg385
I1
sg386
I2
sg387
I0
sg388
Nsg389
I0
sg390
I3
sg391
F0
sg392
F-1
sg393
I0
sg394
F-1
sg395
I2
sS'name'
p1792
S'172'
p1793
stRp1794
(dp1795
g400
NsbF0.00660689827054739
sg381
(g382
(dp1796
g384
Nsg385
I1
sg386
I2
sg387
I0
sg388
Nsg389
I0
sg390
I3
sg391
F0
sg392
F-1
sg393
I0
sg394
F-1
sg395
I2
sS'name'
p1797
S'173'
p1798
stRp1799
(dp1800
g400
NsbF0.039437342435121536
sg381
(g382
(dp1801
g384
Nsg385
I1
sg386
I2
sg387
I0
sg388
Nsg389
I0
sg390
I3
sg391
F0
sg392
F-1
sg393
I0
sg394
F-1
sg395
I2
sS'name'
p1802
S'174'
p1803
stRp1804
(dp1805
g400
NsbF0.017539657652378082
sg381
(g382
(dp1806
g384
Nsg385
I1
sg386
I2
sg387
I0
sg388
Nsg389
I0
sg390
I3
sg391
F0
sg392
F-1
sg393
I0
sg394
F-1
sg395
I2
sS'name'
p1807
S'175'
p1808
stRp1809
(dp1810
g400
NsbF-0.0014870294835418463
sg381
(g382
(dp1811
g384
Nsg385
I1
sg386
I2
sg387
I0
sg388
Nsg389
I0
sg390
I3
sg391
F0
sg392
F-1
sg393
I0
sg394
F-1
sg395
I2
sS'name'
p1812
S'176'
p1813
stRp1814
(dp1815
g400
NsbF0.0070949695073068142
sg381
(g382
(dp1816
g384
Nsg385
I1
sg386
I2
sg387
I0
sg388
Nsg389
I0
sg390
I3
sg391
F0
sg392
F-1
sg393
I0
sg394
F-1
sg395
I2
sS'name'
p1817
S'177'
p1818
stRp1819
(dp1820
g400
NsbF0.020188411697745323
sg381
(g382
(dp1821
g384
Nsg385
I1
sg386
I2
sg387
I0
sg388
Nsg389
I0
sg390
I3
sg391
F0
sg392
F-1
sg393
I0
sg394
F-1
sg395
I2
sS'name'
p1822
S'178'
p1823
stRp1824
(dp1825
g400
NsbF0.010036312974989414
sg381
(g382
(dp1826
g384
Nsg385
I1
sg386
I2
sg387
I0
sg388
Nsg389
I0
sg390
I3
sg391
F0
sg392
F-1
sg393
I0
sg394
F-1
sg395
I2
sS'name'
p1827
S'179'
p1828
stRp1829
(dp1830
g400
NsbF0.0079830139875411987
sg381
(g382
(dp1831
g384
Nsg385
I1
sg386
I2
sg387
I0
sg388
Nsg389
I0
sg390
I3
sg391
F0
sg392
F-1
sg393
I0
sg394
F-1
sg395
I2
sS'name'
p1832
S'180'
p1833
stRp1834
(dp1835
g400
NsbF0.0021482212468981743
sg381
(g382
(dp1836
g384
Nsg385
I1
sg386
I2
sg387
I0
sg388
Nsg389
I0
sg390
I3
sg391
F0
sg392
F-1
sg393
I0
sg394
F-1
sg395
I2
sS'name'
p1837
S'181'
p1838
stRp1839
(dp1840
g400
NsbF0.02273016981780529
sg381
(g382
(dp1841
g384
Nsg385
I1
sg386
I2
sg387
I0
sg388
Nsg389
I0
sg390
I3
sg391
F0
sg392
F-1
sg393
I0
sg394
F-1
sg395
I2
sS'name'
p1842
S'182'
p1843
stRp1844
(dp1845
g400
NsbF0.002366908360272646
sg381
(g382
(dp1846
g384
Nsg385
I1
sg386
I2
sg387
I0
sg388
Nsg389
I0
sg390
I3
sg391
F0
sg392
F-1
sg393
I0
sg394
F-1
sg395
I2
sS'name'
p1847
S'183'
p1848
stRp1849
(dp1850
g400
NsbF0.00055710488231852651
sg381
(g382
(dp1851
g384
Nsg385
I1
sg386
I2
sg387
I0
sg388
Nsg389
I0
sg390
I3
sg391
F0
sg392
F-1
sg393
I0
sg394
F-1
sg395
I2
sS'name'
p1852
S'184'
p1853
stRp1854
(dp1855
g400
NsbF0.0038321227766573429
sg381
(g382
(dp1856
g384
Nsg385
I1
sg386
I2
sg387
I0
sg388
Nsg389
I0
sg390
I3
sg391
F0
sg392
F-1
sg393
I0
sg394
F-1
sg395
I2
sS'name'
p1857
S'185'
p1858
stRp1859
(dp1860
g400
NsbF0.022735480219125748
sg381
(g382
(dp1861
g384
Nsg385
I1
sg386
I2
sg387
I0
sg388
Nsg389
I0
sg390
I3
sg391
F0
sg392
F-1
sg393
I0
sg394
F-1
sg395
I2
sS'name'
p1862
S'186'
p1863
stRp1864
(dp1865
g400
NsbF-0.0036231605336070061
sg381
(g382
(dp1866
g384
Nsg385
I1
sg386
I2
sg387
I0
sg388
Nsg389
I0
sg390
I3
sg391
F0
sg392
F-1
sg393
I0
sg394
F-1
sg395
I2
sS'name'
p1867
S'187'
p1868
stRp1869
(dp1870
g400
NsbF0
sg381
(g382
(dp1871
g384
Nsg385
I1
sg386
I2
sg387
I0
sg388
Nsg389
I0
sg390
I3
sg391
F0
sg392
F-1
sg393
I0
sg394
F-1
sg395
I2
sS'name'
p1872
S'188'
p1873
stRp1874
(dp1875
g400
NsbF3.3369113225489855e-05
sg381
(g382
(dp1876
g384
Nsg385
I1
sg386
I2
sg387
I0
sg388
Nsg389
I0
sg390
I3
sg391
F0
sg392
F-1
sg393
I0
sg394
F-1
sg395
I2
sS'name'
p1877
S'189'
p1878
stRp1879
(dp1880
g400
NsbF0
sg381
(g382
(dp1881
g384
Nsg385
I1
sg386
I2
sg387
I0
sg388
Nsg389
I0
sg390
I3
sg391
F0
sg392
F-1
sg393
I0
sg394
F-1
sg395
I2
sS'name'
p1882
S'190'
p1883
stRp1884
(dp1885
g400
NsbF6.3349143601953983e-05
sg381
(g382
(dp1886
g384
Nsg385
I1
sg386
I2
sg387
I0
sg388
Nsg389
I0
sg390
I3
sg391
F0
sg392
F-1
sg393
I0
sg394
F-1
sg395
I2
sS'name'
p1887
S'191'
p1888
stRp1889
(dp1890
g400
NsbF0.0027371062897145748
sg381
(g382
(dp1891
g384
Nsg385
I1
sg386
I2
sg387
I0
sg388
Nsg389
I0
sg390
I3
sg391
F0
sg392
F-1
sg393
I0
sg394
F-1
sg395
I2
sS'name'
p1892
S'192'
p1893
stRp1894
(dp1895
g400
NsbF0.013010096736252308
sg381
(g382
(dp1896
g384
Nsg385
I1
sg386
I2
sg387
I0
sg388
Nsg389
I0
sg390
I3
sg391
F0
sg392
F-1
sg393
I0
sg394
F-1
sg395
I2
sS'name'
p1897
S'193'
p1898
stRp1899
(dp1900
g400
NsbF0.00058366457233205438
sg381
(g382
(dp1901
g384
Nsg385
I1
sg386
I2
sg387
I0
sg388
Nsg389
I0
sg390
I3
sg391
F0
sg392
F-1
sg393
I0
sg394
F-1
sg395
I2
sS'name'
p1902
S'194'
p1903
stRp1904
(dp1905
g400
NsbF0.0038408264517784119
sg381
(g382
(dp1906
g384
Nsg385
I1
sg386
I2
sg387
I0
sg388
Nsg389
I0
sg390
I3
sg391
F0
sg392
F-1
sg393
I0
sg394
F-1
sg395
I2
sS'name'
p1907
S'195'
p1908
stRp1909
(dp1910
g400
NsbF-0.0017979084514081478
sg381
(g382
(dp1911
g384
Nsg385
I1
sg386
I2
sg387
I0
sg388
Nsg389
I0
sg390
I3
sg391
F0
sg392
F-1
sg393
I0
sg394
F-1
sg395
I2
sS'name'
p1912
S'196'
p1913
stRp1914
(dp1915
g400
NsbF0
sg381
(g382
(dp1916
g384
Nsg385
I1
sg386
I2
sg387
I0
sg388
Nsg389
I0
sg390
I3
sg391
F0
sg392
F-1
sg393
I0
sg394
F-1
sg395
I2
sS'name'
p1917
S'197'
p1918
stRp1919
(dp1920
g400
NsbF0.00056726153707131743
sg381
(g382
(dp1921
g384
Nsg385
I1
sg386
I2
sg387
I0
sg388
Nsg389
I0
sg390
I3
sg391
F0
sg392
F-1
sg393
I0
sg394
F-1
sg395
I2
sS'name'
p1922
S'198'
p1923
stRp1924
(dp1925
g400
NsbF0
sg381
(g382
(dp1926
g384
Nsg385
I1
sg386
I2
sg387
I0
sg388
Nsg389
I0
sg390
I3
sg391
F0
sg392
F-1
sg393
I0
sg394
F-1
sg395
I2
sS'name'
p1927
S'199'
p1928
stRp1929
(dp1930
g400
NsbF0.0033352982718497515
sg381
(g382
(dp1931
g384
Nsg385
I1
sg386
I2
sg387
I0
sg388
Nsg389
I0
sg390
I3
sg391
F0
sg392
F-1
sg393
I0
sg394
F-1
sg395
I2
sS'name'
p1932
S'200'
p1933
stRp1934
(dp1935
g400
NsbF-0.0006827430916018784
sg381
(g382
(dp1936
g384
Nsg385
I1
sg386
I2
sg387
I0
sg388
Nsg389
I0
sg390
I3
sg391
F0
sg392
F-1
sg393
I0
sg394
F-1
sg395
I2
sS'name'
p1937
S'201'
p1938
stRp1939
(dp1940
g400
NsbF0.00126142508815974
sg381
(g382
(dp1941
g384
Nsg385
I1
sg386
I2
sg387
I0
sg388
Nsg389
I0
sg390
I3
sg391
F0
sg392
F-1
sg393
I0
sg394
F-1
sg395
I2
sS'name'
p1942
S'202'
p1943
stRp1944
(dp1945
g400
NsbF0.00060585822211578488
sg381
(g382
(dp1946
g384
Nsg385
I1
sg386
I2
sg387
I0
sg388
Nsg389
I0
sg390
I3
sg391
F0
sg392
F-1
sg393
I0
sg394
F-1
sg395
I2
sS'name'
p1947
S'203'
p1948
stRp1949
(dp1950
g400
NsbF0.0014519509859383106
sg381
(g382
(dp1951
g384
Nsg385
I1
sg386
I2
sg387
I0
sg388
Nsg389
I0
sg390
I3
sg391
F0
sg392
F-1
sg393
I0
sg394
F-1
sg395
I2
sS'name'
p1952
S'204'
p1953
stRp1954
(dp1955
g400
NsbF0.0028286115266382694
sg381
(g382
(dp1956
g384
Nsg385
I1
sg386
I2
sg387
I0
sg388
Nsg389
I0
sg390
I3
sg391
F0
sg392
F-1
sg393
I0
sg394
F-1
sg395
I2
sS'name'
p1957
S'205'
p1958
stRp1959
(dp1960
g400
NsbF0.0010140573140233755
sg381
(g382
(dp1961
g384
Nsg385
I1
sg386
I2
sg387
I0
sg388
Nsg389
I0
sg390
I3
sg391
F0
sg392
F-1
sg393
I0
sg394
F-1
sg395
I2
sS'name'
p1962
S'206'
p1963
stRp1964
(dp1965
g400
NsbF0.00053596845827996731
sg381
(g382
(dp1966
g384
Nsg385
I1
sg386
I2
sg387
I0
sg388
Nsg389
I0
sg390
I3
sg391
F0
sg392
F-1
sg393
I0
sg394
F-1
sg395
I2
sS'name'
p1967
S'207'
p1968
stRp1969
(dp1970
g400
NsbF0.0053430255502462387
sg381
(g382
(dp1971
g384
Nsg385
I1
sg386
I2
sg387
I0
sg388
Nsg389
I0
sg390
I3
sg391
F0
sg392
F-1
sg393
I0
sg394
F-1
sg395
I2
sS'name'
p1972
S'208'
p1973
stRp1974
(dp1975
g400
NsbF0.0026422799564898014
sg381
(g382
(dp1976
g384
Nsg385
I1
sg386
I2
sg387
I0
sg388
Nsg389
I0
sg390
I3
sg391
F0
sg392
F-1
sg393
I0
sg394
F-1
sg395
I2
sS'name'
p1977
S'209'
p1978
stRp1979
(dp1980
g400
NsbF0.0003907028294634074
sg381
(g382
(dp1981
g384
Nsg385
I1
sg386
I2
sg387
I0
sg388
Nsg389
I0
sg390
I3
sg391
F0
sg392
F-1
sg393
I0
sg394
F-1
sg395
I2
sS'name'
p1982
S'210'
p1983
stRp1984
(dp1985
g400
NsbF0.0027143829502165318
sg381
(g382
(dp1986
g384
Nsg385
I1
sg386
I2
sg387
I0
sg388
Nsg389
I0
sg390
I3
sg391
F0
sg392
F-1
sg393
I0
sg394
F-1
sg395
I2
sS'name'
p1987
S'211'
p1988
stRp1989
(dp1990
g400
NsbF0.0043141767382621765
sg381
(g382
(dp1991
g384
Nsg385
I1
sg386
I2
sg387
I0
sg388
Nsg389
I0
sg390
I3
sg391
F0
sg392
F-1
sg393
I0
sg394
F-1
sg395
I2
sS'name'
p1992
S'212'
p1993
stRp1994
(dp1995
g400
NsbF0.0032382607460021973
sg381
(g382
(dp1996
g384
Nsg385
I1
sg386
I2
sg387
I0
sg388
Nsg389
I0
sg390
I3
sg391
F0
sg392
F-1
sg393
I0
sg394
F-1
sg395
I2
sS'name'
p1997
S'213'
p1998
stRp1999
(dp2000
g400
NsbF0.0010336037958040833
sg381
(g382
(dp2001
g384
Nsg385
I1
sg386
I2
sg387
I0
sg388
Nsg389
I0
sg390
I3
sg391
F0
sg392
F-1
sg393
I0
sg394
F-1
sg395
I2
sS'name'
p2002
S'214'
p2003
stRp2004
(dp2005
g400
NsbF0.001401700428687036
sg381
(g382
(dp2006
g384
Nsg385
I1
sg386
I2
sg387
I0
sg388
Nsg389
I0
sg390
I3
sg391
F0
sg392
F-1
sg393
I0
sg394
F-1
sg395
I2
sS'name'
p2007
S'215'
p2008
stRp2009
(dp2010
g400
NsbF0.00032874150201678276
sg381
(g382
(dp2011
g384
Nsg385
I1
sg386
I2
sg387
I0
sg388
Nsg389
I0
sg390
I3
sg391
F0
sg392
F-1
sg393
I0
sg394
F-1
sg395
I2
sS'name'
p2012
S'216'
p2013
stRp2014
(dp2015
g400
NsbF0.00048323048395104706
sg381
(g382
(dp2016
g384
Nsg385
I1
sg386
I2
sg387
I0
sg388
Nsg389
I0
sg390
I3
sg391
F0
sg392
F-1
sg393
I0
sg394
F-1
sg395
I2
sS'name'
p2017
S'217'
p2018
stRp2019
(dp2020
g400
NsbF0.0025927196256816387
sg381
(g382
(dp2021
g384
Nsg385
I1
sg386
I2
sg387
I0
sg388
Nsg389
I0
sg390
I3
sg391
F0
sg392
F-1
sg393
I0
sg394
F-1
sg395
I2
sS'name'
p2022
S'218'
p2023
stRp2024
(dp2025
g400
NsbF0.0026152534410357475
sg381
(g382
(dp2026
g384
Nsg385
I1
sg386
I2
sg387
I0
sg388
Nsg389
I0
sg390
I3
sg391
F0
sg392
F-1
sg393
I0
sg394
F-1
sg395
I2
sS'name'
p2027
S'219'
p2028
stRp2029
(dp2030
g400
NsbF0.0029461868107318878
sg381
(g382
(dp2031
g384
Nsg385
I1
sg386
I2
sg387
I0
sg388
Nsg389
I0
sg390
I3
sg391
F0
sg392
F-1
sg393
I0
sg394
F-1
sg395
I2
sS'name'
p2032
S'220'
p2033
stRp2034
(dp2035
g400
NsbF0.0030218425672501326
sg381
(g382
(dp2036
g384
Nsg385
I1
sg386
I2
sg387
I0
sg388
Nsg389
I0
sg390
I3
sg391
F0
sg392
F-1
sg393
I0
sg394
F-1
sg395
I2
sS'name'
p2037
S'221'
p2038
stRp2039
(dp2040
g400
NsbF0.0022364894393831491
sg381
(g382
(dp2041
g384
Nsg385
I1
sg386
I2
sg387
I0
sg388
Nsg389
I0
sg390
I3
sg391
F0
sg392
F-1
sg393
I0
sg394
F-1
sg395
I2
sS'name'
p2042
S'222'
p2043
stRp2044
(dp2045
g400
NsbF-0.00016938679618760943
sg381
(g382
(dp2046
g384
Nsg385
I1
sg386
I2
sg387
I0
sg388
Nsg389
I0
sg390
I3
sg391
F0
sg392
F-1
sg393
I0
sg394
F-1
sg395
I2
sS'name'
p2047
S'223'
p2048
stRp2049
(dp2050
g400
NsbF0.002572603290900588
sg381
(g382
(dp2051
g384
Nsg385
I1
sg386
I2
sg387
I0
sg388
Nsg389
I0
sg390
I3
sg391
F0
sg392
F-1
sg393
I0
sg394
F-1
sg395
I2
sS'name'
p2052
S'224'
p2053
stRp2054
(dp2055
g400
NsbF0.0008661579922772944
sg381
(g382
(dp2056
g384
Nsg385
I1
sg386
I2
sg387
I0
sg388
Nsg389
I0
sg390
I3
sg391
F0
sg392
F-1
sg393
I0
sg394
F-1
sg395
I2
sS'name'
p2057
S'225'
p2058
stRp2059
(dp2060
g400
NsbF0.0029971993062645197
sg381
(g382
(dp2061
g384
Nsg385
I1
sg386
I2
sg387
I0
sg388
Nsg389
I0
sg390
I3
sg391
F0
sg392
F-1
sg393
I0
sg394
F-1
sg395
I2
sS'name'
p2062
S'226'
p2063
stRp2064
(dp2065
g400
NsbF0.0022877103183418512
sg381
(g382
(dp2066
g384
Nsg385
I1
sg386
I2
sg387
I0
sg388
Nsg389
I0
sg390
I3
sg391
F0
sg392
F-1
sg393
I0
sg394
F-1
sg395
I2
sS'name'
p2067
S'227'
p2068
stRp2069
(dp2070
g400
NsbF0.0024090800434350967
sg381
(g382
(dp2071
g384
Nsg385
I1
sg386
I2
sg387
I0
sg388
Nsg389
I0
sg390
I3
sg391
F0
sg392
F-1
sg393
I0
sg394
F-1
sg395
I2
sS'name'
p2072
S'228'
p2073
stRp2074
(dp2075
g400
NsbF-0.00041672310908325016
sg381
(g382
(dp2076
g384
Nsg385
I1
sg386
I2
sg387
I0
sg388
Nsg389
I0
sg390
I3
sg391
F0
sg392
F-1
sg393
I0
sg394
F-1
sg395
I2
sS'name'
p2077
S'229'
p2078
stRp2079
(dp2080
g400
NsbF0.00047757610445842147
sg381
(g382
(dp2081
g384
Nsg385
I1
sg386
I2
sg387
I0
sg388
Nsg389
I0
sg390
I3
sg391
F0
sg392
F-1
sg393
I0
sg394
F-1
sg395
I2
sS'name'
p2082
S'230'
p2083
stRp2084
(dp2085
g400
NsbF0.00074880477041006088
sg381
(g382
(dp2086
g384
Nsg385
I1
sg386
I2
sg387
I0
sg388
Nsg389
I0
sg390
I3
sg391
F0
sg392
F-1
sg393
I0
sg394
F-1
sg395
I2
sS'name'
p2087
S'231'
p2088
stRp2089
(dp2090
g400
NsbF0.0001794258423615247
sg381
(g382
(dp2091
g384
Nsg385
I1
sg386
I2
sg387
I0
sg388
Nsg389
I0
sg390
I3
sg391
F0
sg392
F-1
sg393
I0
sg394
F-1
sg395
I2
sS'name'
p2092
S'232'
p2093
stRp2094
(dp2095
g400
NsbF0.018537851050496101
sg381
(g382
(dp2096
g384
Nsg385
I1
sg386
I2
sg387
I0
sg388
Nsg389
I0
sg390
I3
sg391
F0
sg392
F-1
sg393
I0
sg394
F-1
sg395
I2
sS'name'
p2097
S'233'
p2098
stRp2099
(dp2100
g400
NsbF0.01061091385781765
sg381
(g382
(dp2101
g384
Nsg385
I1
sg386
I2
sg387
I0
sg388
Nsg389
I0
sg390
I3
sg391
F0
sg392
F-1
sg393
I0
sg394
F-1
sg395
I2
sS'name'
p2102
S'234'
p2103
stRp2104
(dp2105
g400
NsbF0.0028783944435417652
sg381
(g382
(dp2106
g384
Nsg385
I1
sg386
I2
sg387
I0
sg388
Nsg389
I0
sg390
I3
sg391
F0
sg392
F-1
sg393
I0
sg394
F-1
sg395
I2
sS'name'
p2107
S'235'
p2108
stRp2109
(dp2110
g400
NsbF0.00086468574590981007
sg381
(g382
(dp2111
g384
Nsg385
I1
sg386
I2
sg387
I0
sg388
Nsg389
I0
sg390
I3
sg391
F0
sg392
F-1
sg393
I0
sg394
F-1
sg395
I2
sS'name'
p2112
S'236'
p2113
stRp2114
(dp2115
g400
NsbF0.0050193564966320992
sg381
(g382
(dp2116
g384
Nsg385
I1
sg386
I2
sg387
I0
sg388
Nsg389
I0
sg390
I3
sg391
F0
sg392
F-1
sg393
I0
sg394
F-1
sg395
I2
sS'name'
p2117
S'237'
p2118
stRp2119
(dp2120
g400
NsbF0.0038491145242005587
sg381
(g382
(dp2121
g384
Nsg385
I1
sg386
I2
sg387
I0
sg388
Nsg389
I0
sg390
I3
sg391
F0
sg392
F-1
sg393
I0
sg394
F-1
sg395
I2
sS'name'
p2122
S'238'
p2123
stRp2124
(dp2125
g400
NsbF0.010742677375674248
sg381
(g382
(dp2126
g384
Nsg385
I1
sg386
I2
sg387
I0
sg388
Nsg389
I0
sg390
I3
sg391
F0
sg392
F-1
sg393
I0
sg394
F-1
sg395
I2
sS'name'
p2127
S'239'
p2128
stRp2129
(dp2130
g400
NsbF0.00061748595908284187
sg381
(g382
(dp2131
g384
Nsg385
I1
sg386
I2
sg387
I0
sg388
Nsg389
I0
sg390
I3
sg391
F0
sg392
F-1
sg393
I0
sg394
F-1
sg395
I2
sS'name'
p2132
S'240'
p2133
stRp2134
(dp2135
g400
NsbF0.0027857727836817503
sg381
(g382
(dp2136
g384
Nsg385
I1
sg386
I2
sg387
I0
sg388
Nsg389
I0
sg390
I3
sg391
F0
sg392
F-1
sg393
I0
sg394
F-1
sg395
I2
sS'name'
p2137
S'241'
p2138
stRp2139
(dp2140
g400
NsbF4.872908175457269e-05
sg381
(g382
(dp2141
g384
Nsg385
I1
sg386
I2
sg387
I0
sg388
Nsg389
I0
sg390
I3
sg391
F0
sg392
F-1
sg393
I0
sg394
F-1
sg395
I2
sS'name'
p2142
S'242'
p2143
stRp2144
(dp2145
g400
NsbF0.0010701653081923723
sg381
(g382
(dp2146
g384
Nsg385
I1
sg386
I2
sg387
I0
sg388
Nsg389
I0
sg390
I3
sg391
F0
sg392
F-1
sg393
I0
sg394
F-1
sg395
I2
sS'name'
p2147
S'243'
p2148
stRp2149
(dp2150
g400
NsbF0.00037101493217051029
sg381
(g382
(dp2151
g384
Nsg385
I1
sg386
I2
sg387
I0
sg388
Nsg389
I0
sg390
I3
sg391
F0
sg392
F-1
sg393
I0
sg394
F-1
sg395
I2
sS'name'
p2152
S'244'
p2153
stRp2154
(dp2155
g400
NsbF-0.00045814516488462687
sg381
(g382
(dp2156
g384
Nsg385
I1
sg386
I2
sg387
I0
sg388
Nsg389
I0
sg390
I3
sg391
F0
sg392
F-1
sg393
I0
sg394
F-1
sg395
I2
sS'name'
p2157
S'245'
p2158
stRp2159
(dp2160
g400
NsbF0.012575034983456135
sg381
(g382
(dp2161
g384
Nsg385
I1
sg386
I2
sg387
I0
sg388
Nsg389
I0
sg390
I3
sg391
F0
sg392
F-1
sg393
I0
sg394
F-1
sg395
I2
sS'name'
p2162
S'246'
p2163
stRp2164
(dp2165
g400
NsbF0.009973505511879921
sg381
(g382
(dp2166
g384
Nsg385
I1
sg386
I2
sg387
I0
sg388
Nsg389
I0
sg390
I3
sg391
F0
sg392
F-1
sg393
I0
sg394
F-1
sg395
I2
sS'name'
p2167
S'247'
p2168
stRp2169
(dp2170
g400
NsbF0.0090262079611420631
sg381
(g382
(dp2171
g384
Nsg385
I1
sg386
I2
sg387
I0
sg388
Nsg389
I0
sg390
I3
sg391
F0
sg392
F-1
sg393
I0
sg394
F-1
sg395
I2
sS'name'
p2172
S'248'
p2173
stRp2174
(dp2175
g400
NsbF0.0051526622846722603
sg381
(g382
(dp2176
g384
Nsg385
I1
sg386
I2
sg387
I0
sg388
Nsg389
I0
sg390
I3
sg391
F0
sg392
F-1
sg393
I0
sg394
F-1
sg395
I2
sS'name'
p2177
S'249'
p2178
stRp2179
(dp2180
g400
NsbF0.0043371859937906265
sg381
(g382
(dp2181
g384
Nsg385
I1
sg386
I2
sg387
I0
sg388
Nsg389
I0
sg390
I3
sg391
F0
sg392
F-1
sg393
I0
sg394
F-1
sg395
I2
sS'name'
p2182
S'250'
p2183
stRp2184
(dp2185
g400
NsbF0.0076381536200642586
sg381
(g382
(dp2186
g384
Nsg385
I1
sg386
I2
sg387
I0
sg388
Nsg389
I0
sg390
I3
sg391
F0
sg392
F-1
sg393
I0
sg394
F-1
sg395
I2
sS'name'
p2187
S'251'
p2188
stRp2189
(dp2190
g400
NsbF0.0031754921656101942
sg381
(g382
(dp2191
g384
Nsg385
I1
sg386
I2
sg387
I0
sg388
Nsg389
I0
sg390
I3
sg391
F0
sg392
F-1
sg393
I0
sg394
F-1
sg395
I2
sS'name'
p2192
S'252'
p2193
stRp2194
(dp2195
g400
NsbF0.0022654817439615726
sg381
(g382
(dp2196
g384
Nsg385
I1
sg386
I2
sg387
I0
sg388
Nsg389
I0
sg390
I3
sg391
F0
sg392
F-1
sg393
I0
sg394
F-1
sg395
I2
sS'name'
p2197
S'253'
p2198
stRp2199
(dp2200
g400
NsbF0.0016348452772945166
sg381
(g382
(dp2201
g384
Nsg385
I1
sg386
I2
sg387
I0
sg388
Nsg389
I0
sg390
I3
sg391
F0
sg392
F-1
sg393
I0
sg394
F-1
sg395
I2
sS'name'
p2202
S'254'
p2203
stRp2204
(dp2205
g400
NsbF0.0023562584538012743
sg381
(g382
(dp2206
g384
Nsg385
I1
sg386
I2
sg387
I0
sg388
Nsg389
I0
sg390
I3
sg391
F0
sg392
F-1
sg393
I0
sg394
F-1
sg395
I2
sS'name'
p2207
S'255'
p2208
stRp2209
(dp2210
g400
NsbF-0.0013528892304748297
sg381
(g382
(dp2211
g384
Nsg385
I1
sg386
I2
sg387
I0
sg388
Nsg389
I0
sg390
I3
sg391
F0
sg392
F-1
sg393
I0
sg394
F-1
sg395
I2
sS'name'
p2212
S'256'
p2213
stRp2214
(dp2215
g400
NsbF-0.0021268122363835573
sg381
(g382
(dp2216
g384
Nsg385
I1
sg386
I2
sg387
I0
sg388
Nsg389
I0
sg390
I3
sg391
F0
sg392
F-1
sg393
I0
sg394
F-1
sg395
I2
sS'name'
p2217
S'257'
p2218
stRp2219
(dp2220
g400
NsbF0.00089768413454294205
sg381
(g382
(dp2221
g384
Nsg385
I1
sg386
I2
sg387
I0
sg388
Nsg389
I0
sg390
I3
sg391
F0
sg392
F-1
sg393
I0
sg394
F-1
sg395
I2
sS'name'
p2222
S'258'
p2223
stRp2224
(dp2225
g400
NsbF-0.00086372275836765766
sg381
(g382
(dp2226
g384
Nsg385
I1
sg386
I2
sg387
I0
sg388
Nsg389
I0
sg390
I3
sg391
F0
sg392
F-1
sg393
I0
sg394
F-1
sg395
I2
sS'name'
p2227
S'259'
p2228
stRp2229
(dp2230
g400
NsbF6.2832958064973354e-05
sg381
(g382
(dp2231
g384
Nsg385
I1
sg386
I2
sg387
I0
sg388
Nsg389
I0
sg390
I3
sg391
F0
sg392
F-1
sg393
I0
sg394
F-1
sg395
I2
sS'name'
p2232
S'260'
p2233
stRp2234
(dp2235
g400
NsbF0.00010555815242696553
sg381
(g382
(dp2236
g384
Nsg385
I1
sg386
I2
sg387
I0
sg388
Nsg389
I0
sg390
I3
sg391
F0
sg392
F-1
sg393
I0
sg394
F-1
sg395
I2
sS'name'
p2237
S'261'
p2238
stRp2239
(dp2240
g400
NsbF0.0011523060966283083
sg381
(g382
(dp2241
g384
Nsg385
I1
sg386
I2
sg387
I0
sg388
Nsg389
I0
sg390
I3
sg391
F0
sg392
F-1
sg393
I0
sg394
F-1
sg395
I2
sS'name'
p2242
S'262'
p2243
stRp2244
(dp2245
g400
NsbF0.0012963524786755443
sg381
(g382
(dp2246
g384
Nsg385
I1
sg386
I2
sg387
I0
sg388
Nsg389
I0
sg390
I3
sg391
F0
sg392
F-1
sg393
I0
sg394
F-1
sg395
I2
sS'name'
p2247
S'263'
p2248
stRp2249
(dp2250
g400
NsbF0.0018095117993652821
sg381
(g382
(dp2251
g384
Nsg385
I1
sg386
I2
sg387
I0
sg388
Nsg389
I0
sg390
I3
sg391
F0
sg392
F-1
sg393
I0
sg394
F-1
sg395
I2
sS'name'
p2252
S'264'
p2253
stRp2254
(dp2255
g400
NsbF1.9820814486593008e-05
sg381
(g382
(dp2256
g384
Nsg385
I1
sg386
I2
sg387
I0
sg388
Nsg389
I0
sg390
I3
sg391
F0
sg392
F-1
sg393
I0
sg394
F-1
sg395
I2
sS'name'
p2257
S'265'
p2258
stRp2259
(dp2260
g400
NsbF0.00014213524991646409
ss.