(lp1
F0.67905592918395996
aF0.78819566965103149
aF0.055231202393770218
aF0.22040277719497681
aF0.13410541415214539
aF0.37727177143096924
aF0.85972875356674194
aF0.7287297248840332
aF0.7170865535736084
aF0.42445299029350281
aF0.67406225204467773
aF0.52043944597244263
aF0.50996100902557373
aF0.39480698108673096
aF0.36049827933311462
aF0.91409903764724731
aF0.63006824254989624
aF0.51078581809997559
aF0.3074474036693573
aF0.46991908550262451
aF0.83628898859024048
aF0.61638087034225464
aF0.27109071612358093
aF0.12101028114557266
aF0.17045962810516357
aF0.94273084402084351
aF0.53805023431777954
aF0.42467635869979858
aF0.52358907461166382
aF0.76531171798706055
aF0.35573405027389526
aF0.6439216136932373
aF0.19782786071300507
aF0.76485610008239746
aF0.54416108131408691
aF0.19324848055839539
aF0.53351283073425293
aF0.64691555500030518
aF0.67446011304855347
aF0.71288961172103882
aF0.71354657411575317
aF0.10216761380434036
aF0.051401857286691666
aF0.6270025372505188
aF0.45598086714744568
aF0.91296684741973877
aF0.62700164318084717
aF0.72281390428543091
aF0.6117817759513855
aF0.69236999750137329
aF0.76039004325866699
aF0.58547401428222656
aF0.08557998389005661
aF0.70951104164123535
aF0.81572836637496948
aF0.83838081359863281
aF0.39238822460174561
aF0.20035296678543091
aF0.91266775131225586
aF0.57927566766738892
aF0.39742398262023926
aF0.34107097983360291
aF0.59843063354492188
aF0.84211432933807373
aF0.49037274718284607
aF0.27812537550926208
aF0.7504001259803772
aF0.55473130941390991
aF0.18348114192485809
aF0.60048514604568481
aF0.13001042604446411
aF0.41858571767807007
aF0.84549236297607422
aF0.3627656102180481
aF0.84456509351730347
aF0.93390315771102905
aF0.48058542609214783
aF0.60641437768936157
aF0.83785712718963623
aF0.016024565324187279
aF0.87453407049179077
aF0.30112001299858093
aF0.5334811806678772
aF0.89813202619552612
aF0.70028287172317505
aF0.6763617992401123
aF0.50854665040969849
aF0.47990697622299194
aF0.85446000099182129
aF0.62118840217590332
aF0.90127271413803101
aF0.86290544271469116
aF0.71365660429000854
aF0.34559717774391174
aF0.40713128447532654
aF0.42582714557647705
aF0.87618827819824219
aF0.73048192262649536
aF0.69254821538925171
aF0.57328605651855469
aF0.099743030965328217
aF0.057312924414873123
aF0.70281499624252319
aF0.9411778450012207
aF0.58749961853027344
aF0.90112334489822388
aF0.7639695405960083
aF0.91276043653488159
aF0.043452627956867218
aF0.70763629674911499
aF0.1311066746711731
aF0.15636233985424042
aF0.26284110546112061
aF0.67283755540847778
aF0.8668704628944397
aF0.59246647357940674
aF0.32994881272315979
aF0.6739276647567749
aF0.4536457359790802
aF0.91393518447875977
aF0.19332252442836761
aF0.25777897238731384
aF0.41353562474250793
aF0.34476903080940247
aF0.53043359518051147
aF0.78459626436233521
aF0.80521190166473389
aF0.37618264555931091
aF0.85614508390426636
aF0.59904336929321289
aF0.26030480861663818
aF0.93103039264678955
aF0.75924497842788696
aF0.43401047587394714
aF0.49335122108459473
aF0.074048534035682678
aF0.36566212773323059
aF0.3750062882900238
aF0.69906318187713623
aF0.63250851631164551
aF0.68129277229309082
aF0.62769800424575806
aF0.88469654321670532
aF0.79547345638275146
aF0.54215222597122192
aF0.73478966951370239
aF0.55734908580780029
aF0.90148228406906128
aF0.4727100133895874
aF0.15594938397407532
aF0.22689998149871826
aF0.67860013246536255
aF0.85015213489532471
aF0.53461229801177979
aF0.51273292303085327
aF0.45546749234199524
aF0.69262564182281494
aF0.6645093560218811
aF0.58409732580184937
aF0.58115226030349731
aF0.62692171335220337
aF0.13736392557621002
aF0.44514045119285583
aF0.56665432453155518
aF0.43806758522987366
aF0.54927569627761841
aF0.074649825692176819
aF0.58512681722640991
aF0.85922080278396606
aF0.095510818064212799
aF0.38135844469070435
aF0.35956910252571106
aF0.8362584114074707
aF0.37970495223999023
aF0.57570827007293701
aF0.95897042751312256
aF0.53383636474609375
aF0.66721951961517334
aF0.33776435256004333
aF0.28444910049438477
aF0.61285191774368286
aF0.29692956805229187
aF0.42038142681121826
aF0.71755790710449219
aF0.82563543319702148
aF0.48235806822776794
aF0.96803146600723267
aF0.81552481651306152
aF0.55005902051925659
aF0.73992949724197388
aF0.77019417285919189
aF0.68301171064376831
aF0.36990448832511902
aF0.71347635984420776
aF0.4976828396320343
aF0.35530146956443787
aF0.86557424068450928
aF0.65753191709518433
aF0.75279444456100464
aF0.4273589551448822
aF0.91161960363388062
aF0.11998429149389267
aF0.55645859241485596
aF0.87254416942596436
aF0.66523838043212891
aF0.17518128454685211
aF0.18109813332557678
aF0.29152292013168335
aF0.94823288917541504
aF0.11705273389816284
aF0.20975999534130096
aF0.48003241419792175
aF0.38957467675209045
aF0.42407912015914917
aF0.63775140047073364
aF0.23399108648300171
aF0.26729044318199158
aF0.066493265330791473
aF0.92690843343734741
aF0.77022510766983032
aF0.35145130753517151
aF0.31445097923278809
aF0.27478346228599548
aF0.61176282167434692
aF0.41309627890586853
aF0.39068683981895447
aF0.29880240559577942
aF0.55803346633911133
aF0.80279189348220825
aF0.72901123762130737
aF0.10842662304639816
aF0.83323347568511963
aF0.68256348371505737
aF0.72723639011383057
aF0.73882007598876953
aF0.52440261840820312
aF0.58630311489105225
aF0.5633770227432251
aF0.61033123731613159
aF0.10127265751361847
aF0.90098106861114502
aF0.51612520217895508
aF0.49631637334823608
aF0.21643324196338654
aF0.65601557493209839
aF0.64942395687103271
aF0.21257852017879486
aF0.62647700309753418
aF0.72695755958557129
aF0.51877254247665405
aF0.77539467811584473
aF0.2947695255279541
aF0.19706174731254578
aF0.55798560380935669
aF0.50980514287948608
aF0.26702374219894409
aF0.1249314621090889
aF0.46609899401664734
aF0.73722469806671143
aF0.93919467926025391
aF0.43658724427223206
aF0.88467288017272949
aF0.76911818981170654
aF0.27685850858688354
aF0.33025500178337097
aF0.47998103499412537
aF0.39869517087936401
aF0.22679845988750458
aF0.88626939058303833
aF0.12590870261192322
aF0.71498310565948486
aF0.90570753812789917
aF0.43519312143325806
aF0.27429041266441345
aF0.81512069702148438
aF0.10412488877773285
aF0.51890075206756592
aF0.44336003065109253
aF0.70496892929077148
aF0.30690795183181763
aF0.6873663067817688
aF0.72806364297866821
aF0.44500735402107239
aF0.55509155988693237
aF0.86008250713348389
aF0.31665346026420593
aF0.60512089729309082
aF0.38216719031333923
aF0.65824955701828003
aF0.53322941064834595
aF0.46341797709465027
aF0.7530364990234375
aF0.56017214059829712
aF0.67446523904800415
aF0.69246202707290649
aF0.74236613512039185
aF0.63103181123733521
aF0.79853290319442749
aF0.013244826346635818
aF0.52744615077972412
aF0.92133396863937378
aF0.13453458249568939
aF0.83778238296508789
aF0.73264330625534058
aF0.72250258922576904
aF0.2323138415813446
aF0.63906764984130859
aF0.68107300996780396
aF0.11080354452133179
aF0.92378735542297363
aF0.51378715038299561
aF0.87287575006484985
aF0.78125423192977905
aF0.50190818309783936
aF0.74445337057113647
aF0.90481299161911011
aF0.49127596616744995
aF0.68593418598175049
aF0.89372390508651733
aF0.70618742704391479
aF0.80232137441635132
aF0.20629052817821503
aF0.40392899513244629
aF0.56025826930999756
aF0.40579143166542053
aF0.66009742021560669
aF0.49371415376663208
aF0.30170896649360657
aF0.63488972187042236
aF0.42987048625946045
aF0.60833913087844849
aF0.72466373443603516
aF0.63748055696487427
aF0.84989333152770996
aF0.048014290630817413
aF0.80888271331787109
aF0.88481640815734863
aF0.5571901798248291
aF0.4559592604637146
aF0.32735723257064819
aF0.65137124061584473
aF0.7345777153968811
aF0.5953029990196228
aF0.25725480914115906
aF0.60008472204208374
aF0.35565486550331116
aF0.95432484149932861
aF0.47854387760162354
aF0.12477783113718033
aF0.68812966346740723
aF0.092669591307640076
aF0.36578670144081116
aF0.4763164222240448
aF0.22826100885868073
aF0.71590113639831543
aF0.39478647708892822
aF0.41742360591888428
aF0.20986215770244598
aF0.59981805086135864
aF0.93978220224380493
aF0.16840498149394989
aF0.44078335165977478
aF0.50218379497528076
aF0.79357695579528809
aF0.82763856649398804
aF0.69116181135177612
aF0.61752158403396606
aF0.86305326223373413
aF0.3705141544342041
aF0.58136558532714844
aF0.54204761981964111
aF0.11262156814336777
aF0.47327142953872681
aF0.81630599498748779
aF0.43032282590866089
aF0.05826476588845253
aF0.68331193923950195
aF0.59718418121337891
aF0.31974998116493225
aF0.80730515718460083
aF0.20930255949497223
aF0.11278758943080902
aF0.780475914478302
aF0.13728763163089752
aF0.62760096788406372
aF0.7439953088760376
aF0.10596030205488205
aF0.83341330289840698
aF0.66146105527877808
aF0.68059062957763672
aF0.7192034125328064
aF0.93741035461425781
aF0.41890671849250793
aF0.12255847454071045
aF0.35726079344749451
aF0.30205592513084412
aF0.048896204680204391
aF0.79177689552307129
aF0.73177284002304077
aF0.28289112448692322
aF0.94675493240356445
aF0.96161597967147827
aF0.62411034107208252
aF0.91102766990661621
aF0.65189170837402344
aF0.78221243619918823
aF0.50028455257415771
aF0.61062324047088623
aF0.81425744295120239
aF0.097970917820930481
aF0.91996186971664429
aF0.84850454330444336
aF0.35960045456886292
aF0.072936035692691803
aF0.89816844463348389
aF0.47145652770996094
aF0.60279184579849243
aF0.46577897667884827
aF0.61244845390319824
aF0.95363283157348633
aF0.6683698296546936
aF0.36210024356842041
aF0.46238932013511658
aF0.75576740503311157
aF0.68983608484268188
aF0.82763671875
aF0.82575947046279907
aF0.85557597875595093
aF0.93270266056060791
aF0.68862754106521606
aF0.82313066720962524
aF0.56234794855117798
aF0.34348839521408081
aF0.33370402455329895
aF0.50343835353851318
aF0.60412979125976562
aF0.6212233304977417
aF0.22698751091957092
aF0.92568624019622803
aF0.74433439970016479
aF0.39738637208938599
aF0.92121028900146484
aF0.63678270578384399
aF0.43170395493507385
aF0.29681980609893799
aF0.89526712894439697
aF0.58586740493774414
aF0.50954335927963257
aF0.80244934558868408
aF0.28704896569252014
aF0.21430167555809021
aF0.11555618792772293
aF0.28402289748191833
aF0.20290026068687439
aF0.95594805479049683
aF0.89807641506195068
aF0.84686017036437988
aF0.75641465187072754
aF0.66669446229934692
aF0.87200725078582764
aF0.4396912157535553
aF0.56037873029708862
aF0.6823127269744873
aF0.38717934489250183
aF0.6968654990196228
aF0.31962040066719055
aF0.19371704757213593
aF0.41532972455024719
aF0.89020490646362305
aF0.73697352409362793
aF0.61752891540527344
aF0.93423187732696533
aF0.7697482705116272
aF0.53522723913192749
aF0.77242803573608398
aF0.92132765054702759
aF0.99018025398254395
aF0.58752816915512085
aF0.68172222375869751
aF0.3838239312171936
aF0.52815371751785278
aF0.65903383493423462
aF0.46288344264030457
aF0.48825260996818542
aF0.57060050964355469
aF0.27790901064872742
aF0.31441077589988708
aF0.19460810720920563
aF0.71080052852630615
aF0.6024552583694458
aF0.66256636381149292
aF0.49972584843635559
aF0.91512829065322876
aF0.89164060354232788
aF0.15292052924633026
aF0.89624190330505371
aF0.43601670861244202
aF0.71417689323425293
aF0.15175870060920715
aF0.18083398044109344
aF0.55479413270950317
aF0.35891982913017273
aF0.55868738889694214
aF0.35475170612335205
aF0.95623874664306641
aF0.78551298379898071
aF0.62355709075927734
aF0.26889190077781677
aF0.68370968103408813
aF0.83421820402145386
aF0.42639979720115662
aF0.72342157363891602
aF0.63723421096801758
aF0.59690916538238525
aF0.39120388031005859
aF0.74285471439361572
aF0.54989808797836304
aF0.3048587441444397
aF0.40409195423126221
aF0.029971245676279068
aF0.46892949938774109
aF0.059918913990259171
aF0.35067710280418396
aF0.28369468450546265
aF0.79952144622802734
aF0.069566994905471802
aF0.56126564741134644
aF0.30830302834510803
aF0.60634714365005493
aF0.76853370666503906
aF0.73919504880905151
aF0.79195338487625122
aF0.83163124322891235
aF0.33788478374481201
aF0.42981532216072083
aF0.57798254489898682
aF0.90037500858306885
aF0.59059780836105347
aF0.97561025619506836
aF0.044646162539720535
aF0.41582080721855164
aF0.68934434652328491
aF0.082487508654594421
aF0.4272540807723999
aF0.55106216669082642
aF0.04621477797627449
aF0.63947427272796631
aF0.50676310062408447
aF0.64233601093292236
aF0.65099352598190308
aF0.073891393840312958
aF0.50394779443740845
aF0.53553187847137451
aF0.18266494572162628
aF0.58157330751419067
aF0.69792115688323975
aF0.40621688961982727
aF0.75290679931640625
aF0.30809804797172546
aF0.55371725559234619
aF0.73830002546310425
aF0.62640070915222168
aF0.75282245874404907
aF0.12320244312286377
aF0.82275158166885376
aF0.92084592580795288
aF0.83622419834136963
aF0.79538935422897339
aF0.92573171854019165
aF0.83065390586853027
aF0.83418256044387817
aF0.71455091238021851
aF0.10034316778182983
aF0.69212800264358521
aF0.067830443382263184
aF0.4130668044090271
aF0.98104161024093628
aF0.15076979994773865
aF0.4624430239200592
aF0.3438052237033844
aF0.54390537738800049
aF0.70117539167404175
aF0.95364135503768921
aF0.67703211307525635
aF0.52671021223068237
aF0.57588189840316772
aF0.90682274103164673
aF0.79278552532196045
aF0.19898027181625366
aF0.8177604079246521
aF0.7179228663444519
aF0.69185084104537964
aF0.59088641405105591
aF0.45373475551605225
aF0.33914342522621155
aF0.1121509000658989
aF0.28218680620193481
aF0.89355599880218506
aF0.88982051610946655
aF0.81597131490707397
aF0.25415155291557312
aF0.73779982328414917
aF0.82489472627639771
aF0.7413867712020874
aF0.84521251916885376
aF0.89442163705825806
aF0.25103065371513367
aF0.93559974431991577
aF0.4097265899181366
aF0.87066149711608887
aF0.80489146709442139
aF0.29024636745452881
aF0.78296422958374023
aF0.77744185924530029
aF0.9333573579788208
aF0.85119569301605225
aF0.75818973779678345
aF0.46639350056648254
aF0.44880974292755127
aF0.57373273372650146
aF0.72631376981735229
aF0.4954105019569397
aF0.82166850566864014
aF0.67435061931610107
aF0.817707359790802
aF0.70004963874816895
aF0.91502147912979126
aF0.31144717335700989
aF0.49804472923278809
aF0.36912360787391663
aF0.64784801006317139
aF0.12854444980621338
aF0.57312214374542236
aF0.89046585559844971
aF0.42836880683898926
aF0.79112637042999268
aF0.86235147714614868
aF0.75339597463607788
aF0.039337750524282455
aF0.93080043792724609
aF0.47074589133262634
aF0.40317732095718384
aF0.39814284443855286
aF0.49230244755744934
aF0.37546083331108093
aF0.91640901565551758
aF0.94830554723739624
aF0.15454067289829254
aF0.87628257274627686
aF0.6128726601600647
aF0.67749506235122681
aF0.42922425270080566
aF0.77808427810668945
aF0.37715744972229004
aF0.70203185081481934
aF0.92249763011932373
aF0.42759928107261658
aF0.44517046213150024
aF0.91297179460525513
aF0.51821106672286987
aF0.87886506319046021
aF0.65473419427871704
aF0.61433118581771851
aF0.5075562596321106
aF0.2492297887802124
aF0.35122358798980713
aF0.46255841851234436
aF0.095264501869678497
aF0.62454986572265625
aF0.33807694911956787
aF0.61675989627838135
aF0.83946651220321655
aF0.67978602647781372
aF0.89468413591384888
aF0.8823663592338562
aF0.54193854331970215
aF0.58259755373001099
aF0.91144704818725586
aF0.41531050205230713
aF0.20697320997714996
aF0.94317489862442017
aF0.70229995250701904
aF0.26861026883125305
aF0.22495591640472412
aF0.18817475438117981
aF0.43754926323890686
aF0.83811831474304199
aF0.79948908090591431
aF0.94851481914520264
aF0.83456236124038696
aF0.32435595989227295
aF0.38587215542793274
aF0.54993414878845215
aF0.85678809881210327
aF0.5494421124458313
aF0.66645610332489014
aF0.63065886497497559
aF0.51482713222503662
aF0.60080492496490479
aF0.077521242201328278
aF0.89915609359741211
aF0.097544170916080475
aF0.12825861573219299
aF0.85468882322311401
aF0.26568952202796936
aF0.26728314161300659
aF0.88301074504852295
aF0.52326369285583496
aF0.065264217555522919
aF0.94426071643829346
aF0.91613256931304932
aF0.052164021879434586
aF0.88374882936477661
aF0.54044836759567261
aF0.60135143995285034
aF0.088874161243438721
aF0.84345781803131104
aF0.29563343524932861
aF0.60920703411102295
aF0.58824735879898071
aF0.81659978628158569
aF0.42298778891563416
aF0.085425741970539093
aF0.82485812902450562
aF0.15892989933490753
aF0.4822533130645752
aF0.60279101133346558
aF0.60635054111480713
aF0.67295408248901367
aF0.6381385326385498
aF0.83099520206451416
aF0.57372665405273438
aF0.8881988525390625
aF0.63988679647445679
aF0.80413126945495605
aF0.2899421751499176
aF0.87122553586959839
aF0.65136039257049561
aF0.91686552762985229
aF0.57607978582382202
aF0.76990115642547607
aF0.13931986689567566
aF0.46260556578636169
aF0.98833715915679932
aF0.68424534797668457
aF0.46137276291847229
aF0.12363868951797485
aF0.15195600688457489
aF0.064546532928943634
aF0.20794132351875305
aF0.60120177268981934
aF0.47401183843612671
aF0.82668423652648926
aF0.84772568941116333
aF0.23671770095825195
aF0.71111565828323364
aF0.66164571046829224
aF0.44608578085899353
aF0.81198990345001221
aF0.24919338524341583
aF0.24280218780040741
aF0.80467808246612549
aF0.65991175174713135
aF0.37984248995780945
aF0.90271264314651489
aF0.93990683555603027
aF0.13988746702671051
aF0.43190127611160278
aF0.30435219407081604
aF0.38881883025169373
aF0.63055813312530518
aF0.41582414507865906
aF0.71853339672088623
aF0.87446439266204834
aF0.55269289016723633
aF0.91328459978103638
aF0.17294858396053314
aF0.067641057074069977
aF0.61170017719268799
aF0.63759297132492065
aF0.92622321844100952
aF0.56990188360214233
aF0.2558462917804718
aF0.49827206134796143
aF0.30261346697807312
aF0.251039057970047
aF0.64353489875793457
aF0.17649546265602112
aF0.703544020652771
aF0.45205500721931458
aF0.47324943542480469
aF0.080142632126808167
aF0.25147300958633423
aF0.84304600954055786
aF0.73787921667098999
aF0.91916638612747192
aF0.43342095613479614
aF0.93102926015853882
aF0.29091212153434753
aF0.73895180225372314
aF0.73353171348571777
aF0.15373905003070831
aF0.39706626534461975
aF0.82821881771087646
aF0.6678164005279541
aF0.60028111934661865
aF0.33548703789710999
aF0.56773513555526733
aF0.43342328071594238
aF0.58702325820922852
aF0.5757904052734375
aF0.84588885307312012
aF0.60466486215591431
aF0.85233783721923828
aF0.53599607944488525
aF0.30031365156173706
aF0.35764536261558533
aF0.92108821868896484
aF0.35994240641593933
aF0.48196312785148621
aF0.62998473644256592
aF0.74158298969268799
aF0.39224493503570557
aF0.62497425079345703
aF0.11669629812240601
aF0.69235914945602417
aF0.30229377746582031
aF0.43318337202072144
aF0.86556047201156616
aF0.55501878261566162
aF0.87109231948852539
aF0.51854002475738525
aF0.72632896900177002
aF0.26330459117889404
aF0.046734664589166641
aF0.9232335090637207
aF0.4673786461353302
aF0.20048858225345612
aF0.65361106395721436
aF0.68916010856628418
aF0.886646568775177
aF0.87834501266479492
aF0.55689072608947754
aF0.33611738681793213
aF0.81410259008407593
aF0.14545534551143646
aF0.53061294555664062
aF0.48479148745536804
aF0.071585826575756073
aF0.14487341046333313
aF0.16147178411483765
aF0.59099233150482178
aF0.20707027614116669
aF0.59395956993103027
aF0.24088117480278015
aF0.70881205797195435
aF0.18569950759410858
aF0.70628088712692261
aF0.15960010886192322
aF0.64363628625869751
aF0.66263800859451294
aF0.7117275595664978
aF0.67096054553985596
aF0.51783525943756104
aF0.49079391360282898
aF0.84084141254425049
aF0.9360123872756958
aF0.22892753779888153
aF0.62533789873123169
aF0.051641508936882019
aF0.93185818195343018
aF0.39785167574882507
aF0.74529308080673218
aF0.13462556898593903
aF0.4272838830947876
aF0.29155871272087097
aF0.10428418219089508
aF0.40232440829277039
aF0.34479397535324097
aF0.66004699468612671
aF0.62656468152999878
aF0.89311635494232178
aF0.53188258409500122
aF0.40854591131210327
aF0.5102841854095459
aF0.80232387781143188
aF0.61355632543563843
aF0.44432163238525391
aF0.74697309732437134
aF0.87434369325637817
aF0.39948827028274536
aF0.90432155132293701
aF0.89679646492004395
aF0.30113896727561951
aF0.36215353012084961
aF0.68310815095901489
aF0.55538898706436157
aF0.902171790599823
aF0.13247333467006683
aF0.87806153297424316
aF0.38636109232902527
aF0.64282804727554321
aF0.61904036998748779
aF0.61640340089797974
aF0.82534825801849365
aF0.87855803966522217
aF0.55875092744827271
aF0.96152901649475098
aF0.84130489826202393
aF0.541129469871521
aF0.84718489646911621
aF0.31641393899917603
aF0.65514332056045532
aF0.63875067234039307
aF0.3978513777256012
aF0.4656989574432373
aF0.20012399554252625
aF0.87817645072937012
aF0.47746509313583374
aF0.45726469159126282
aF0.63982284069061279
aF0.56056267023086548
aF0.14829321205615997
aF0.58851146697998047
aF0.055897261947393417
aF0.2617868185043335
aF0.26337450742721558
aF0.87212544679641724
aF0.1706850528717041
aF0.23640508949756622
aF0.60923647880554199
aF0.92082083225250244
aF0.70134437084197998
aF0.83078354597091675
aF0.34438681602478027
aF0.79512923955917358
aF0.20436194539070129
aF0.098853625357151031
aF0.93004077672958374
aF0.89572882652282715
aF0.9673728346824646
aF0.57309496402740479
aF0.75794792175292969
aF0.16335846483707428
aF0.82192176580429077
aF0.12760362029075623
aF0.93524026870727539
aF0.62298011779785156
aF0.84167474508285522
aF0.63210320472717285
aF0.95071107149124146
aF0.61148238182067871
aF0.065953522920608521
aF0.36414766311645508
aF0.3683612048625946
aF0.71304911375045776
aF0.59735065698623657
aF0.5565260648727417
aF0.8046073317527771
aF0.60415530204772949
aF0.30038774013519287
aF0.94395893812179565
aF0.90556430816650391
aF0.80124557018280029
aF0.13392005860805511
aF0.9370761513710022
aF0.66207343339920044
aF0.53710305690765381
aF0.83993518352508545
aF0.7420007586479187
aF0.62817502021789551
aF0.19905894994735718
aF0.10063142329454422
aF0.42879471182823181
aF0.58275735378265381
aF0.78400075435638428
aF0.30504128336906433
aF0.72746723890304565
aF0.4834187924861908
aF0.075942941009998322
aF0.88078916072845459
aF0.57569605112075806
aF0.93505597114562988
aF0.87633848190307617
aF0.55055958032608032
aF0.93426483869552612
aF0.60951024293899536
aF0.47842666506767273
aF0.86797589063644409
aF0.75826823711395264
aF0.06010078638792038
aF0.028407139703631401
aF0.64791256189346313
aF0.50335663557052612
aF0.45328238606452942
aF0.41748404502868652
aF0.31256192922592163
aF0.79826140403747559
aF0.34150528907775879
aF0.43556293845176697
aF0.34811636805534363
aF0.38788172602653503
aF0.43017053604125977
aF0.56088024377822876
aF0.90135651826858521
aF0.32573941349983215
aF0.39321866631507874
aF0.46636739373207092
aF0.15298943221569061
aF0.25876399874687195
aF0.73505431413650513
aF0.52888429164886475
aF0.50823444128036499
aF0.84528589248657227
aF0.7122076153755188
aF0.63832688331604004
aF0.88263815641403198
aF0.65653550624847412
aF0.2315305769443512
aF0.91338717937469482
aF0.4725472629070282
aF0.65112763643264771
aF0.10348954051733017
aF0.41788524389266968
aF0.36950677633285522
aF0.068228177726268768
aF0.17531804740428925
aF0.80028843879699707
aF0.55610370635986328
aF0.20863108336925507
aF0.6361624002456665
aF0.89683294296264648
aF0.51138299703598022
aF0.74998116493225098
aF0.55536144971847534
aF0.71007412672042847
aF0.39601001143455505
aF0.69406712055206299
aF0.16646483540534973
aF0.66980618238449097
aF0.59628301858901978
aF0.76644819974899292
aF0.95535778999328613
aF0.69975090026855469
aF0.93138366937637329
aF0.25950312614440918
aF0.44983896613121033
aF0.21884295344352722
aF0.92232096195220947
aF0.64778029918670654
aF0.51421105861663818
aF0.3823930025100708
aF0.23564115166664124
aF0.30986407399177551
aF0.8555111289024353
aF0.2134225070476532
aF0.5442236065864563
aF0.46279612183570862
aF0.79371500015258789
aF0.50641542673110962
aF0.62549805641174316
aF0.80795574188232422
aF0.79863584041595459
aF0.97556108236312866
aF0.30104759335517883
aF0.7343401312828064
aF0.56712746620178223
aF0.12394195050001144
aF0.71548831462860107
aF0.55871546268463135
aF0.10334553569555283
aF0.1346772313117981
aF0.4008307158946991
aF0.58073312044143677
aF0.65891510248184204
aF0.9616047739982605
aF0.81247472763061523
aF0.54569762945175171
aF0.61520916223526001
aF0.14935271441936493
aF0.69352257251739502
aF0.66759723424911499
aF0.20947298407554626
aF0.25950312614440918
aF0.7167397141456604
aF0.60969221591949463
aF0.6069951057434082
aF0.95718032121658325
aF0.89265793561935425
aF0.23620238900184631
aF0.73374974727630615
aF0.80713331699371338
aF0.29786941409111023
aF0.72729653120040894
aF0.73477071523666382
aF0.83070206642150879
aF0.23949068784713745
aF0.22648276388645172
aF0.35962072014808655
aF0.10263057053089142
aF0.34174841642379761
aF0.280987948179245
aF0.65697938203811646
aF0.63485813140869141
aF0.93283873796463013
aF0.85814839601516724
aF0.79193037748336792
aF0.44787883758544922
aF0.6912311315536499
aF0.79779970645904541
aF0.6388627290725708
aF0.58459937572479248
aF0.67493325471878052
aF0.33214223384857178
aF0.54452657699584961
aF0.62072056531906128
aF0.39927801489830017
aF0.60042077302932739
aF0.2631012499332428
aF0.88834518194198608
aF0.83469361066818237
aF0.46969765424728394
aF0.8765835165977478
aF0.72541135549545288
aF0.2074788361787796
aF0.71133965253829956
aF0.53760659694671631
aF0.71681010723114014
aF0.65176266431808472
aF0.89708846807479858
aF0.93264573812484741
aF0.46521809697151184
aF0.69397997856140137
aF0.5879700779914856
aF0.65165328979492188
aF0.16103155910968781
aF0.69726711511611938
aF0.59874850511550903
aF0.18375112116336823
aF0.43261203169822693
aF0.22231705486774445
aF0.58296751976013184
aF0.33026200532913208
aF0.47114798426628113
aF0.24335865676403046
aF0.10056150704622269
aF0.75060832500457764
aF0.89429134130477905
aF0.65104776620864868
aF0.79357266426086426
aF0.86639124155044556
aF0.59377205371856689
aF0.74112260341644287
aF0.78873342275619507
aF0.94967073202133179
aF0.52004009485244751
aF0.94238263368606567
aF0.75713682174682617
aF0.25267019867897034
aF0.74961990118026733
aF0.36661973595619202
aF0.51358127593994141
aF0.1715918630361557
aF0.54264688491821289
aF0.84001326560974121
aF0.89240211248397827
aF0.50671851634979248
aF0.60674101114273071
aF0.05113229900598526
aF0.93529403209686279
aF0.43424218893051147
aF0.86836773157119751
aF0.76277178525924683
aF0.72813701629638672
aF0.45573806762695312
aF0.53482013940811157
aF0.66738319396972656
aF0.9498867392539978
aF0.50519716739654541
aF0.5884595513343811
aF0.9250648021697998
aF0.35274553298950195
aF0.43170925974845886
aF0.31541222333908081
aF0.40375888347625732
aF0.74232202768325806
aF0.094881333410739899
aF0.07368837296962738
aF0.74644118547439575
aF0.57920241355895996
aF0.62357598543167114
aF0.10278749465942383
aF0.10221843421459198
aF0.63176721334457397
aF0.99382573366165161
aF0.36104625463485718
aF0.5599905252456665
aF0.96059679985046387
aF0.35773429274559021
aF0.98476696014404297
aF0.2900519073009491
aF0.57493281364440918
aF0.80970203876495361
aF0.75125235319137573
aF0.73931974172592163
aF0.4255954921245575
aF0.13207836449146271
aF0.78260082006454468
aF0.76651847362518311
aF0.19548241794109344
aF0.6461188793182373
aF0.74216979742050171
aF0.018599756062030792
aF0.05274229496717453
aF0.50136673450469971
aF0.52579087018966675
aF0.68869858980178833
aF0.58418601751327515
aF0.70385175943374634
aF0.66735810041427612
aF0.84818404912948608
aF0.28249314427375793
aF0.91902512311935425
aF0.54255938529968262
aF0.8413732647895813
aF0.88815683126449585
aF0.69823497533798218
aF0.15892201662063599
aF0.48638921976089478
aF0.7059941291809082
aF0.72599458694458008
aF0.2679722011089325
aF0.23813562095165253
aF0.83075451850891113
aF0.62145280838012695
aF0.6649932861328125
aF0.51662379503250122
aF0.84213429689407349
aF0.26258149743080139
aF0.7413792610168457
aF0.38683852553367615
aF0.47331848740577698
aF0.87403565645217896
aF0.81861376762390137
aF0.074691861867904663
aF0.69965147972106934
aF0.39966490864753723
aF0.77044177055358887
aF0.2378411740064621
aF0.16306909918785095
aF0.51686996221542358
aF0.34676399827003479
aF0.85477715730667114
aF0.90204989910125732
aF0.17797262966632843
aF0.5875435471534729
aF0.51084768772125244
aF0.47265967726707458
aF0.91997259855270386
aF0.83516103029251099
aF0.66510027647018433
aF0.6631503701210022
aF0.33107125759124756
aF0.62054520845413208
aF0.6214447021484375
aF0.9453810453414917
aF0.39422208070755005
aF0.90630447864532471
aF0.76821416616439819
aF0.58790785074234009
aF0.88745772838592529
aF0.60178041458129883
aF0.071337729692459106
aF0.64090681076049805
aF0.5960235595703125
aF0.67557448148727417
aF0.44182875752449036
aF0.91888797283172607
aF0.047098416835069656
aF0.63835674524307251
aF0.5876542329788208
aF0.37897756695747375
aF0.42406004667282104
aF0.31127908825874329
aF0.51433795690536499
aF0.24632394313812256
aF0.60327541828155518
aF0.13304182887077332
aF0.48731601238250732
aF0.27841237187385559
aF0.76930677890777588
aF0.41526895761489868
aF0.64898568391799927
aF0.82223004102706909
aF0.11446910351514816
aF0.72636103630065918
aF0.49467316269874573
aF0.66995596885681152
aF0.30665919184684753
aF0.27320635318756104
aF0.91534280776977539
aF0.85797101259231567
aF0.75340920686721802
aF0.24590584635734558
aF0.46077072620391846
aF0.23936162889003754
aF0.53631788492202759
aF0.68489658832550049
aF0.16708855330944061
aF0.42640691995620728
aF0.80328255891799927
aF0.79838436841964722
aF0.92393523454666138
aF0.54696559906005859
aF0.44790759682655334
aF0.31163129210472107
aF0.85039263963699341
aF0.74550765752792358
aF0.57261604070663452
aF0.2054377943277359
aF0.76107394695281982
aF0.86475354433059692
aF0.73383468389511108
aF0.84279328584671021
aF0.77410656213760376
aF0.78943580389022827
aF0.84521478414535522
aF0.71600848436355591
aF0.54530525207519531
aF0.92965972423553467
aF0.90021234750747681
aF0.23458771407604218
aF0.74332261085510254
aF0.093255244195461273
aF0.94635856151580811
aF0.014721197076141834
aF0.48199555277824402
aF0.159552201628685
aF0.94584953784942627
aF0.5009608268737793
aF0.63012254238128662
aF0.30085974931716919
aF0.34516045451164246
aF0.84521985054016113
aF0.75334745645523071
aF0.57338929176330566
aF0.27096870541572571
aF0.20756344497203827
aF0.87690222263336182
aF0.52839154005050659
aF0.63242876529693604
aF0.84187513589859009
aF0.39992868900299072
aF0.87764847278594971
aF0.7554817795753479
aF0.82402771711349487
aF0.028131671249866486
aF0.76922619342803955
aF0.2049984335899353
aF0.11711523681879044
aF0.67220711708068848
aF0.68254280090332031
aF0.87132632732391357
aF0.11654170602560043
aF0.33029627799987793
aF0.11362303793430328
aF0.52144104242324829
aF0.40162381529808044
aF0.71921384334564209
aF0.30681595206260681
aF0.73668307065963745
aF0.87698465585708618
aF0.44136840105056763
aF0.37036141753196716
aF0.65517967939376831
aF0.41399359703063965
aF0.29498901963233948
aF0.63942897319793701
aF0.48662194609642029
aF0.91412514448165894
aF0.78068119287490845
aF0.48795807361602783
aF0.30591168999671936
aF0.76583236455917358
aF0.37469580769538879
aF0.2239447683095932
aF0.56546419858932495
aF0.86792689561843872
aF0.69240540266036987
aF0.26222971081733704
aF0.46029600501060486
aF0.60787093639373779
aF0.06579204648733139
aF0.61501067876815796
aF0.33081918954849243
aF0.95912414789199829
aF0.63647526502609253
aF0.28411602973937988
aF0.70304840803146362
aF0.76098257303237915
aF0.42460769414901733
aF0.50257015228271484
aF0.49920731782913208
aF0.64839810132980347
aF0.73363113403320312
aF0.19781380891799927
aF0.83091461658477783
aF0.2029234915971756
aF0.65921306610107422
aF0.92295032739639282
aF0.16603276133537292
aF0.45931130647659302
aF0.9062073826789856
aF0.47538504004478455
aF0.82666772603988647
aF0.26242011785507202
aF0.079029679298400879
aF0.79926961660385132
aF0.92026138305664062
aF0.51251316070556641
aF0.93585491180419922
aF0.52826875448226929
aF0.51849722862243652
aF0.44189351797103882
aF0.35022744536399841
aF0.53088116645812988
aF0.28640961647033691
aF0.57882028818130493
aF0.71609044075012207
aF0.11014136672019958
aF0.33289304375648499
aF0.76282483339309692
aF0.73387306928634644
aF0.66886794567108154
aF0.86495649814605713
aF0.82204478979110718
aF0.47644099593162537
aF0.95332986116409302
aF0.46452820301055908
aF0.68721801042556763
aF0.79881042242050171
aF0.42947477102279663
aF0.56661337614059448
aF0.69858866930007935
aF0.37790918350219727
aF0.74194377660751343
aF0.27094051241874695
aF0.50374972820281982
aF0.13590039312839508
aF0.3055645227432251
aF0.49700206518173218
aF0.56213504076004028
aF0.461832195520401
aF0.28732132911682129
aF0.87932628393173218
aF0.73692154884338379
aF0.18490399420261383
aF0.53780579566955566
aF0.9496922492980957
aF0.65645062923431396
aF0.71911382675170898
aF0.41503611207008362
aF0.63218134641647339
aF0.34064850211143494
aF0.86905670166015625
aF0.75632476806640625
aF0.29523932933807373
aF0.86594611406326294
aF0.23497103154659271
aF0.85101079940795898
aF0.54063326120376587
aF0.65839606523513794
aF0.76635026931762695
aF0.64784455299377441
aF0.56330031156539917
aF0.2330123633146286
aF0.10039854794740677
aF0.83138442039489746
aF0.06334378570318222
aF0.55743825435638428
aF0.17515671253204346
aF0.70711988210678101
aF0.39701449871063232
aF0.55719226598739624
aF0.49637198448181152
aF0.46294969320297241
aF0.50735616683959961
aF0.70639866590499878
aF0.52638840675354004
aF0.8652152419090271
aF0.62466639280319214
aF0.41006368398666382
aF0.80428743362426758
aF0.19015946984291077
aF0.82575356960296631
aF0.6029287576675415
aF0.65924626588821411
aF0.78149068355560303
aF0.68932759761810303
aF0.58972537517547607
aF0.5413060188293457
aF0.4029451310634613
aF0.85013741254806519
aF0.63616257905960083
aF0.5216597318649292
aF0.638999342918396
aF0.34859320521354675
aF0.54359668493270874
aF0.8212469220161438
aF0.80137044191360474
aF0.64452135562896729
aF0.022477792575955391
aF0.26627540588378906
aF0.21765236556529999
aF0.52062505483627319
aF0.65469861030578613
aF0.22446335852146149
aF0.11248764395713806
aF0.21999941766262054
aF0.68541175127029419
aF0.088984355330467224
aF0.61384785175323486
aF0.35624071955680847
aF0.64069795608520508
aF0.24486503005027771
aF0.67855417728424072
aF0.58053404092788696
aF0.81852239370346069
aF0.37792429327964783
aF0.56981050968170166
aF0.57856303453445435
aF0.66114264726638794
aF0.36490058898925781
aF0.94274836778640747
aF0.73076099157333374
aF0.52963203191757202
aF0.46019324660301208
aF0.82086306810379028
aF0.72538280487060547
aF0.48626387119293213
aF0.95081049203872681
aF0.78658109903335571
aF0.59256082773208618
aF0.88874119520187378
aF0.42481148242950439
aF0.045242253690958023
aF0.49991607666015625
aF0.23089195787906647
aF0.47181069850921631
aF0.60385811328887939
aF0.8167535662651062
aF0.25323367118835449
aF0.35573941469192505
aF0.92773646116256714
aF0.5732840895652771
aF0.93252831697463989
aF0.6389615535736084
aF0.36093395948410034
aF0.32484585046768188
aF0.66249704360961914
aF0.79422527551651001
aF0.38703060150146484
aF0.74077790975570679
aF0.41418221592903137
aF0.37600743770599365
aF0.76837998628616333
aF0.21502253413200378
aF0.63290578126907349
aF0.69225424528121948
aF0.32912606000900269
aF0.65952950716018677
aF0.60915952920913696
aF0.68321669101715088
aF0.47207605838775635
aF0.49991050362586975
aF0.77096623182296753
aF0.60066437721252441
aF0.13643543422222137
aF0.90981096029281616
aF0.70603406429290771
aF0.32201048731803894
aF0.84177571535110474
aF0.57608300447463989
aF0.6784021258354187
aF0.86318248510360718
aF0.8113282322883606
aF0.90997141599655151
aF0.44656077027320862
aF0.85047751665115356
aF0.24289143085479736
aF0.62805032730102539
aF0.62478280067443848
aF0.20175381004810333
aF0.37810653448104858
aF0.88872009515762329
aF0.4588649570941925
aF0.24587804079055786
aF0.31951752305030823
aF0.69184130430221558
aF0.47632238268852234
aF0.24961477518081665
aF0.39953708648681641
aF0.50280922651290894
aF0.52421778440475464
aF0.44759583473205566
aF0.75932085514068604
aF0.16076560318470001
aF0.20174689590930939
aF0.23241420090198517
aF0.27722686529159546
aF0.16800831258296967
aF0.62077707052230835
aF0.3525855541229248
aF0.10185872763395309
aF0.77089834213256836
aF0.39483568072319031
aF0.59232831001281738
aF0.72490578889846802
aF0.49258482456207275
aF0.66856306791305542
aF0.8661963939666748
aF0.42803281545639038
aF0.62345397472381592
aF0.69203126430511475
aF0.61146599054336548
aF0.5694538950920105
aF0.062559165060520172
aF0.85237300395965576
aF0.59311246871948242
aF0.62889301776885986
aF0.38337966799736023
aF0.83261251449584961
aF0.44925084710121155
aF0.60628771781921387
aF0.22980755567550659
aF0.83746588230133057
aF0.57385110855102539
aF0.053742747753858566
aF0.59096550941467285
aF0.75062143802642822
aF0.2676079273223877
aF0.56874555349349976
aF0.23454050719738007
aF0.9254227876663208
aF0.67756718397140503
aF0.57216262817382812
aF0.47143363952636719
aF0.39303317666053772
aF0.38630640506744385
aF0.82899725437164307
aF0.92034757137298584
aF0.78232842683792114
aF0.9174429178237915
aF0.67855751514434814
aF0.69082564115524292
aF0.54797857999801636
aF0.43066906929016113
aF0.082832925021648407
aF0.44469735026359558
aF0.34864896535873413
aF0.34969687461853027
aF0.79339593648910522
aF0.24113419651985168
aF0.36301788687705994
aF0.7194894552230835
aF0.4381251335144043
aF0.40290325880050659
aF0.87293034791946411
aF0.73331952095031738
aF0.38039693236351013
aF0.88170313835144043
aF0.26739627122879028
aF0.75485479831695557
aF0.9220542311668396
aF0.49143111705780029
aF0.50301593542098999
aF0.84865248203277588
aF0.54336780309677124
aF0.47539195418357849
aF0.8680604100227356
aF0.93419861793518066
aF0.60120546817779541
aF0.62928313016891479
aF0.93290030956268311
aF0.14008490741252899
aF0.75276899337768555
aF0.068835951387882233
aF0.51716142892837524
aF0.18737460672855377
aF0.78923684358596802
aF0.82262766361236572
aF0.26039761304855347
aF0.80591928958892822
aF0.82645022869110107
aF0.66909629106521606
aF0.14721795916557312
aF0.19025368988513947
aF0.24955347180366516
aF0.28368541598320007
aF0.56924819946289062
aF0.60805678367614746
aF0.82937747240066528
aF0.84370905160903931
aF0.10599198937416077
aF0.62738609313964844
aF0.70200961828231812
aF0.61125731468200684
aF0.91955721378326416
aF0.089120626449584961
aF0.20734721422195435
aF0.92832738161087036
aF0.66825026273727417
aF0.784343421459198
aF0.40029650926589966
aF0.42615646123886108
aF0.93962788581848145
aF0.85229653120040894
aF0.18397946655750275
aF0.37937328219413757
aF0.50028616189956665
aF0.55475741624832153
aF0.80530202388763428
aF0.5730288028717041
aF0.1045776829123497
aF0.48067125678062439
aF0.78751158714294434
aF0.95005488395690918
aF0.81614071130752563
aF0.1536557674407959
aF0.1731807142496109
aF0.57199984788894653
aF0.71679133176803589
aF0.39182013273239136
aF0.51113057136535645
aF0.91005992889404297
aF0.88665378093719482
aF0.83842974901199341
aF0.84926515817642212
aF0.50002217292785645
aF0.4553622305393219
aF0.72767090797424316
aF0.65870535373687744
aF0.33659791946411133
aF0.062156371772289276
aF0.55557352304458618
aF0.11475937813520432
aF0.42607367038726807
aF0.58135217428207397
aF0.53213542699813843
aF0.56183737516403198
aF0.57289320230484009
aF0.91425758600234985
aF0.27424383163452148
aF0.70439296960830688
aF0.89321398735046387
aF0.32222804427146912
aF0.78773695230484009
aF0.44206371903419495
aF0.94753193855285645
aF0.24049612879753113
aF0.67224514484405518
aF0.81425744295120239
aF0.90697634220123291
aF0.59193748235702515
aF0.32572105526924133
aF0.41253817081451416
aF0.93490332365036011
aF0.48079714179039001
aF0.7892335057258606
aF0.099589154124259949
aF0.20978118479251862
aF0.15069673955440521
aF0.22405138611793518
aF0.56156337261199951
aF0.61506301164627075
aF0.61722183227539062
aF0.62529391050338745
aF0.26753807067871094
aF0.54298663139343262
aF0.50295770168304443
aF0.38034933805465698
aF0.20340456068515778
aF0.45922508835792542
aF0.88019472360610962
aF0.7218744158744812
aF0.3819124698638916
aF0.91567832231521606
aF0.96638995409011841
aF0.52592307329177856
aF0.63306343555450439
aF0.34956273436546326
aF0.30895054340362549
aF0.67114412784576416
aF0.35997688770294189
aF0.58800429105758667
aF0.23440991342067719
aF0.9119608998298645
aF0.07996908575296402
aF0.77285629510879517
aF0.41307461261749268
aF0.68663972616195679
aF0.46784716844558716
aF0.23569175601005554
aF0.64210355281829834
aF0.61960917711257935
aF0.68391811847686768
aF0.84705829620361328
aF0.43770512938499451
aF0.76648032665252686
aF0.50076019763946533
aF0.6282421350479126
aF0.75739318132400513
aF0.78922206163406372
aF0.22945806384086609
aF0.94299274682998657
aF0.18959891796112061
aF0.60986346006393433
aF0.52744829654693604
aF0.48903349041938782
aF0.56234127283096313
aF0.85717982053756714
aF0.53742986917495728
aF0.60587495565414429
aF0.95190709829330444
aF0.46309858560562134
aF0.055689062923192978
aF0.11201462149620056
aF0.13140344619750977
aF0.29832878708839417
aF0.33973422646522522
aF0.070878706872463226
aF0.25146803259849548
aF0.72842901945114136
aF0.1049925684928894
aF0.95067375898361206
aF0.6371917724609375
aF0.23452319204807281
aF0.51096975803375244
aF0.5572395920753479
aF0.49947544932365417
aF0.66002005338668823
aF0.61993443965911865
aF0.16556504368782043
aF0.7500537633895874
aF0.9018174409866333
aF0.65599870681762695
aF0.64442414045333862
aF0.75644832849502563
aF0.099963180720806122
aF0.80034607648849487
aF0.7083594799041748
aF0.71373832225799561
aF0.21698249876499176
aF0.43638956546783447
aF0.85755240917205811
aF0.054411828517913818
aF0.10760465264320374
aF0.33448085188865662
aF0.073427028954029083
aF0.15119881927967072
aF0.46284133195877075
aF0.65984970331192017
aF0.059133164584636688
aF0.11368749290704727
aF0.83807331323623657
aF0.64183831214904785
aF0.58153676986694336
aF0.24400581419467926
aF0.4753011167049408
aF0.11735022068023682
aF0.69923794269561768
aF0.2307157963514328
aF0.34714767336845398
aF0.64228838682174683
aF0.21611873805522919
aF0.42620775103569031
aF0.78153866529464722
aF0.56357574462890625
aF0.51309484243392944
aF0.3373030424118042
aF0.51059794425964355
aF0.96878397464752197
aF0.33703184127807617
aF0.60756272077560425
aF0.82860594987869263
aF0.31657177209854126
aF0.060213275253772736
aF0.21695764362812042
aF0.72675639390945435
aF0.57515406608581543
aF0.1266181468963623
aF0.40932035446166992
aF0.25627952814102173
aF0.70656001567840576
aF0.47133326530456543
aF0.4747995138168335
aF0.72561937570571899
aF0.85529756546020508
aF0.36741036176681519
aF0.41924610733985901
aF0.70255112648010254
aF0.76997607946395874
aF0.86180204153060913
aF0.90763437747955322
aF0.44744464755058289
aF0.026516787707805634
aF0.99280089139938354
aF0.87394624948501587
aF0.55034744739532471
aF0.38034600019454956
aF0.85256022214889526
aF0.54970836639404297
aF0.53798139095306396
aF0.67904382944107056
aF0.48271393775939941
aF0.52567440271377563
aF0.50293844938278198
aF0.59667176008224487
aF0.44953832030296326
aF0.26267507672309875
aF0.14080370962619781
aF0.5850563645362854
aF0.65043944120407104
aF0.61354756355285645
aF0.95824098587036133
aF0.15411050617694855
aF0.050574656575918198
aF0.10385691374540329
aF0.65006083250045776
aF0.79919326305389404
aF0.10232643038034439
aF0.3440188467502594
aF0.32299190759658813
aF0.29433125257492065
aF0.059257805347442627
aF0.95012855529785156
aF0.081321001052856445
aF0.77649927139282227
aF0.64395815134048462
aF0.34863662719726562
aF0.094462543725967407
aF0.92668652534484863
aF0.33513346314430237
aF0.94703632593154907
aF0.66342008113861084
aF0.049499347805976868
aF0.65493619441986084
aF0.36511850357055664
aF0.14176410436630249
aF0.86543041467666626
aF0.48922675848007202
aF0.35990449786186218
aF0.34972715377807617
aF0.30960720777511597
aF0.34255728125572205
aF0.85377055406570435
aF0.72396355867385864
aF0.78267163038253784
aF0.89899808168411255
aF0.029040910303592682
aF0.25965118408203125
aF0.73218274116516113
aF0.65753829479217529
aF0.52325171232223511
aF0.82705581188201904
aF0.66159939765930176
aF0.57963240146636963
aF0.54236710071563721
aF0.45729446411132812
aF0.31321746110916138
aF0.81787204742431641
aF0.58247071504592896
aF0.82026463747024536
aF0.84548282623291016
aF0.65387207269668579
aF0.86356496810913086
aF0.65151005983352661
aF0.65859830379486084
aF0.70446658134460449
aF0.25444373488426208
aF0.91346633434295654
aF0.62561714649200439
aF0.78059738874435425
aF0.78290277719497681
aF0.42521291971206665
aF0.44627869129180908
aF0.8446509838104248
aF0.72180294990539551
aF0.90880221128463745
aF0.63688451051712036
aF0.40382522344589233
aF0.59341597557067871
aF0.84636330604553223
aF0.62337666749954224
aF0.49795383214950562
aF0.15908819437026978
aF0.72104382514953613
aF0.60627186298370361
aF0.5833364725112915
aF0.94264411926269531
aF0.091484494507312775
aF0.63804745674133301
aF0.31338465213775635
aF0.465290367603302
aF0.45856347680091858
aF0.28635352849960327
aF0.63667023181915283
aF0.76508104801177979
aF0.50226759910583496
aF0.46792596578598022
aF0.59041720628738403
aF0.6199878454208374
aF0.93845033645629883
aF0.44912275671958923
aF0.70333880186080933
aF0.65846759080886841
aF0.83672702312469482
aF0.44926655292510986
aF0.17355568706989288
aF0.63817769289016724
aF0.34282070398330688
aF0.95959949493408203
aF0.30192992091178894
aF0.63963198661804199
aF0.55234557390213013
aF0.78090566396713257
aF0.44619140028953552
aF0.85205066204071045
aF0.75042158365249634
aF0.50664454698562622
aF0.73668462038040161
aF0.89475500583648682
aF0.77516847848892212
aF0.076880626380443573
aF0.83003181219100952
aF0.34793657064437866
aF0.29093584418296814
aF0.68011850118637085
aF0.16506215929985046
aF0.062194839119911194
aF0.65567237138748169
aF0.73578071594238281
aF0.20989033579826355
aF0.39304500818252563
aF0.67827200889587402
aF0.8755907416343689
aF0.60676759481430054
aF0.79773741960525513
aF0.68302500247955322
aF0.71371227502822876
aF0.66168093681335449
aF0.89043927192687988
aF0.80811828374862671
aF0.90747362375259399
aF0.068182237446308136
aF0.66263711452484131
aF0.6689496636390686
aF0.29648798704147339
aF0.52548658847808838
aF0.052351273596286774
aF0.64182537794113159
aF0.12106905877590179
aF0.14698740839958191
aF0.4734790027141571
aF0.248886838555336
aF0.054588843137025833
aF0.45429345965385437
aF0.45701882243156433
aF0.36337882280349731
aF0.92834782600402832
aF0.094893872737884521
aF0.13547675311565399
aF0.38162136077880859
aF0.58452481031417847
aF0.75766843557357788
aF0.48794054985046387
aF0.9459269642829895
aF0.8275604248046875
aF0.40973076224327087
aF0.39235022664070129
aF0.24851728975772858
aF0.76341283321380615
aF0.72904616594314575
aF0.30869755148887634
aF0.51722341775894165
aF0.19665466248989105
aF0.89574068784713745
aF0.66422492265701294
aF0.4010578989982605
aF0.57507747411727905
aF0.12769775092601776
aF0.85221457481384277
aF0.80965453386306763
aF0.69096922874450684
aF0.48391067981719971
aF0.15332944691181183
aF0.49746990203857422
aF0.25771886110305786
aF0.78657197952270508
aF0.45041364431381226
aF0.88192993402481079
aF0.77942097187042236
aF0.62233197689056396
aF0.98633873462677002
aF0.62772202491760254
aF0.49700769782066345
aF0.81565016508102417
aF0.62817341089248657
aF0.72397822141647339
aF0.54792463779449463
aF0.52478545904159546
aF0.42170676589012146
aF0.17509718239307404
aF0.64797282218933105
aF0.39342841506004333
aF0.97556346654891968
aF0.34806853532791138
aF0.53364366292953491
aF0.31633168458938599
aF0.21315898001194
aF0.8262026309967041
aF0.44183516502380371
aF0.77010142803192139
aF0.46495518088340759
aF0.21617552638053894
aF0.64813703298568726
aF0.15337368845939636
aF0.92886906862258911
aF0.37616956233978271
aF0.69172090291976929
aF0.94790714979171753
aF0.79794353246688843
aF0.68269455432891846
aF0.087321385741233826
aF0.22341720759868622
aF0.37034490704536438
aF0.20983417332172394
aF0.85776209831237793
aF0.30204427242279053
aF0.94403022527694702
aF0.57165986299514771
aF0.60310906171798706
aF0.58137106895446777
aF0.64053863286972046
aF0.48912534117698669
aF0.25384178757667542
aF0.21743738651275635
aF0.99667340517044067
aF0.81180256605148315
aF0.74327802658081055
aF0.31747323274612427
aF0.25196784734725952
aF0.13907422125339508
aF0.6508362889289856
aF0.63383638858795166
aF0.084457412362098694
aF0.48067709803581238
aF0.55596548318862915
aF0.13110357522964478
aF0.55169552564620972
aF0.94621920585632324
aF0.43522268533706665
aF0.61231648921966553
aF0.53089535236358643
aF0.49840185046195984
aF0.47584760189056396
aF0.68280494213104248
aF0.84725916385650635
aF0.27557280659675598
aF0.54901915788650513
aF0.65926247835159302
aF0.51545900106430054
aF0.36665558815002441
aF0.50174403190612793
aF0.55546534061431885
aF0.73132067918777466
aF0.82381665706634521
aF0.56133031845092773
aF0.32954239845275879
aF0.55825728178024292
aF0.783957839012146
aF0.82022106647491455
aF0.24555724859237671
aF0.52501696348190308
aF0.81004190444946289
aF0.97335773706436157
aF0.78243815898895264
aF0.28888314962387085
aF0.51270335912704468
aF0.669239342212677
aF0.16962675750255585
aF0.44724765419960022
aF0.21866388618946075
aF0.59106910228729248
aF0.19812129437923431
aF0.10080143809318542
aF0.50388658046722412
aF0.58068150281906128
aF0.63565742969512939
aF0.3162422776222229
aF0.95003640651702881
aF0.26111826300621033
aF0.4721037745475769
aF0.04585820809006691
aF0.75024837255477905
aF0.63154250383377075
aF0.62587958574295044
aF0.090481303632259369
aF0.94457012414932251
aF0.67115646600723267
aF0.6448407769203186
aF0.22239120304584503
aF0.19509083032608032
aF0.53995472192764282
aF0.41116487979888916
aF0.84416037797927856
aF0.76135075092315674
aF0.76743000745773315
aF0.65365320444107056
aF0.31931567192077637
aF0.29785129427909851
aF0.78528785705566406
aF0.75551187992095947
aF0.51537299156188965
aF0.50406408309936523
aF0.25055012106895447
aF0.27238810062408447
aF0.75319802761077881
aF0.85003232955932617
aF0.57476806640625
aF0.42109242081642151
aF0.84746438264846802
aF0.66371160745620728
aF0.99423766136169434
aF0.28678753972053528
aF0.51080459356307983
aF0.36063748598098755
aF0.46415978670120239
aF0.29094836115837097
aF0.64883601665496826
aF0.68720310926437378
aF0.84175699949264526
aF0.43654182553291321
aF0.85101974010467529
aF0.64909505844116211
aF0.45550179481506348
aF0.39122107625007629
aF0.75727081298828125
aF0.071943208575248718
aF0.55918002128601074
aF0.39141392707824707
aF0.78322780132293701
aF0.85857194662094116
aF0.56298190355300903
aF0.12055680900812149
aF0.27683582901954651
aF0.51106905937194824
aF0.22149419784545898
aF0.63059788942337036
aF0.46884950995445251
aF0.75230902433395386
aF0.14111371338367462
aF0.47755780816078186
aF0.62435251474380493
aF0.2739749550819397
aF0.4580853283405304
aF0.78440296649932861
aF0.25259822607040405
aF0.61682409048080444
aF0.27051621675491333
aF0.32129433751106262
aF0.62251240015029907
aF0.77162045240402222
aF0.95558023452758789
aF0.32501900196075439
aF0.56632769107818604
aF0.88627159595489502
aF0.3795146644115448
aF0.27518245577812195
aF0.87328469753265381
aF0.6352078914642334
aF0.52619874477386475
aF0.87234598398208618
aF0.2725159227848053
aF0.2260877937078476
aF0.39659237861633301
aF0.63915634155273438
aF0.93718862533569336
aF0.55752402544021606
aF0.98382347822189331
aF0.088208399713039398
aF0.89506179094314575
aF0.26680776476860046
aF0.43365973234176636
aF0.94247919321060181
aF0.76127642393112183
aF0.79528641700744629
aF0.64717233180999756
aF0.60077071189880371
aF0.082027621567249298
aF0.55009669065475464
aF0.66269195079803467
aF0.59367305040359497
aF0.86427265405654907
aF0.91503697633743286
aF0.3785519003868103
aF0.49529352784156799
aF0.94978159666061401
aF0.32680144906044006
aF0.94913291931152344
aF0.84956067800521851
aF0.56239813566207886
aF0.90214353799819946
aF0.28519690036773682
aF0.09850022941827774
aF0.31424951553344727
aF0.7515907883644104
aF0.79876446723937988
aF0.97548747062683105
aF0.81571406126022339
aF0.59865820407867432
aF0.84575390815734863
aF0.93909996747970581
aF0.7888723611831665
aF0.49683797359466553
aF0.44774770736694336
aF0.45000207424163818
aF0.77038335800170898
aF0.50688934326171875
aF0.80614882707595825
aF0.76756399869918823
aF0.079009398818016052
aF0.53670251369476318
aF0.70818758010864258
aF0.61007010936737061
aF0.53662604093551636
aF0.43539470434188843
aF0.5586351752281189
aF0.94421863555908203
aF0.61933135986328125
aF0.27700245380401611
aF0.66123104095458984
aF0.74549704790115356
aF0.65842676162719727
aF0.80027347803115845
aF0.69884592294692993
aF0.044864363968372345
aF0.11107837408781052
aF0.72520023584365845
aF0.67112648487091064
aF0.49156340956687927
aF0.36578801274299622
aF0.09878065437078476
aF0.95315062999725342
aF0.13941158354282379
aF0.068668372929096222
aF0.90016037225723267
aF0.87722182273864746
aF0.55015885829925537
aF0.807869553565979
aF0.17953431606292725
aF0.49666327238082886
aF0.41183140873908997
aF0.15651807188987732
aF0.47296884655952454
aF0.69037944078445435
aF0.68678492307662964
aF0.31611120700836182
aF0.50159084796905518
aF0.12216956913471222
aF0.73163837194442749
aF0.9203040599822998
aF0.82729673385620117
aF0.35991871356964111
aF0.26882815361022949
aF0.60567617416381836
aF0.89803153276443481
aF0.51333242654800415
aF0.71511256694793701
aF0.86870062351226807
aF0.94579726457595825
aF0.058727491647005081
aF0.59627377986907959
aF0.36701923608779907
aF0.31836819648742676
aF0.94593095779418945
aF0.40009072422981262
aF0.61747896671295166
aF0.88250637054443359
aF0.44115918874740601
aF0.71471899747848511
aF0.27315801382064819
aF0.62391370534896851
aF0.856769859790802
aF0.38274899125099182
aF0.24085800349712372
aF0.49115398526191711
aF0.12017009407281876
aF0.58671987056732178
aF0.86097580194473267
aF0.84437912702560425
aF0.633342444896698
aF0.47810333967208862
aF0.40970706939697266
aF0.68803775310516357
aF0.77098321914672852
aF0.20348559319972992
aF0.49572741985321045
aF0.54323935508728027
aF0.57020533084869385
aF0.4182814359664917
aF0.9854806661605835
aF0.86828446388244629
aF0.12975533306598663
aF0.57695770263671875
aF0.86758369207382202
aF0.79463368654251099
aF0.62412923574447632
aF0.45581322908401489
aF0.66725659370422363
aF0.053706176578998566
aF0.63936227560043335
aF0.34061366319656372
aF0.66469407081604004
aF0.89962995052337646
aF0.75037485361099243
aF0.13951423764228821
aF0.47317206859588623
aF0.4944380521774292
aF0.43185579776763916
aF0.61915254592895508
aF0.12229388207197189
aF0.40672528743743896
aF0.80458301305770874
aF0.75712692737579346
aF0.78719335794448853
aF0.70209634304046631
aF0.84313297271728516
aF0.25833284854888916
aF0.41596302390098572
aF0.034345719963312149
aF0.89590084552764893
aF0.54670256376266479
aF0.24612870812416077
aF0.92542731761932373
aF0.77035987377166748
aF0.84594899415969849
aF0.30616474151611328
aF0.44121518731117249
aF0.89416700601577759
aF0.32899981737136841
aF0.14313456416130066
aF0.11208406835794449
aF0.90774571895599365
aF0.2063746452331543
aF0.43172776699066162
aF0.46619254350662231
aF0.32819226384162903
aF0.9078250527381897
aF0.91512554883956909
aF0.74572986364364624
aF0.46931654214859009
aF0.78063255548477173
aF0.50505226850509644
aF0.61253142356872559
aF0.76298922300338745
aF0.17192462086677551
aF0.57797032594680786
aF0.30379506945610046
aF0.37152892351150513
aF0.69770777225494385
aF0.83593416213989258
aF0.90679049491882324
aF0.14583387970924377
aF0.26680964231491089
aF0.13834430277347565
aF0.62006080150604248
aF0.50290411710739136
aF0.70787656307220459
aF0.41983732581138611
aF0.66352462768554688
aF0.89360636472702026
aF0.18434013426303864
aF0.65882301330566406
aF0.29192650318145752
aF0.68862605094909668
aF0.42652830481529236
aF0.59253638982772827
aF0.97346025705337524
aF0.20322518050670624
aF0.68715965747833252
aF0.52215230464935303
aF0.49626260995864868
aF0.69283664226531982
aF0.14825502038002014
aF0.93721437454223633
aF0.60980021953582764
aF0.73768514394760132
aF0.90172857046127319
aF0.44062089920043945
aF0.40859484672546387
aF0.16286727786064148
aF0.94416487216949463
aF0.38558861613273621
aF0.090632706880569458
aF0.87511873245239258
aF0.47182783484458923
aF0.56952571868896484
aF0.41745686531066895
aF0.62481981515884399
aF0.86677092313766479
aF0.31411144137382507
aF0.83630502223968506
aF0.5758674144744873
aF0.65237236022949219
aF0.92247164249420166
aF0.3642197847366333
aF0.94649583101272583
aF0.51029419898986816
aF0.6174166202545166
aF0.14508602023124695
aF0.092332698404788971
aF0.6615825891494751
aF0.59836041927337646
aF0.49453109502792358
aF0.48996612429618835
aF0.83395349979400635
aF0.86530464887619019
aF0.7360655665397644
aF0.63860821723937988
aF0.44266295433044434
aF0.31238538026809692
aF0.57306009531021118
aF0.93197870254516602
aF0.89783340692520142
aF0.59160763025283813
aF0.094399765133857727
aF0.098810665309429169
aF0.7591407299041748
aF0.26103302836418152
aF0.14002472162246704
aF0.84972381591796875
aF0.91149777173995972
aF0.21309709548950195
aF0.68370604515075684
aF0.67146110534667969
aF0.2022717148065567
aF0.29752111434936523
aF0.59725445508956909
aF0.85819995403289795
aF0.93810099363327026
aF0.46774658560752869
aF0.82582783699035645
aF0.74978363513946533
aF0.88245421648025513
aF0.74285435676574707
aF0.25065818428993225
aF0.12292405217885971
aF0.66841351985931396
aF0.5290902853012085
aF0.65057575702667236
aF0.52787059545516968
aF0.31680330634117126
aF0.86457741260528564
aF0.57889968156814575
aF0.26163166761398315
aF0.48716810345649719
aF0.44517335295677185
aF0.97568142414093018
aF0.38407886028289795
aF0.8783268928527832
aF0.80381315946578979
aF0.63542169332504272
aF0.25338172912597656
aF0.83796060085296631
aF0.58108317852020264
aF0.82979673147201538
aF0.46894189715385437
aF0.39733871817588806
aF0.19489501416683197
aF0.46700349450111389
aF0.76878148317337036
aF0.44948810338973999
aF0.15124057233333588
aF0.50223410129547119
aF0.67887800931930542
aF0.28230699896812439
aF0.35127910971641541
aF0.68510156869888306
aF0.92960482835769653
aF0.15362547338008881
aF0.64110565185546875
aF0.85770231485366821
aF0.43648481369018555
aF0.43629002571105957
aF0.11808975040912628
aF0.066231198608875275
aF0.57400614023208618
aF0.48232364654541016
aF0.18787959218025208
aF0.1308588832616806
aF0.73777145147323608
aF0.62221616506576538
aF0.50127589702606201
aF0.33470067381858826
aF0.071376696228981018
aF0.59297263622283936
aF0.4985082745552063
aF0.22781231999397278
aF0.064775608479976654
aF0.81993937492370605
aF0.8061029314994812
aF0.23559318482875824
aF0.87152177095413208
aF0.12572436034679413
aF0.68103587627410889
aF0.57862097024917603
aF0.67802852392196655
aF0.76120221614837646
aF0.55952423810958862
aF0.86373227834701538
aF0.62775921821594238
aF0.80831366777420044
aF0.71192502975463867
aF0.70103126764297485
aF0.2085418701171875
aF0.58909308910369873
aF0.78502202033996582
aF0.095003083348274231
aF0.51253396272659302
aF0.074719779193401337
aF0.28687691688537598
aF0.026360278949141502
aF0.60182076692581177
aF0.70893412828445435
aF0.43566694855690002
aF0.43524441123008728
aF0.84583842754364014
aF0.60053402185440063
aF0.54133838415145874
aF0.07039584219455719
aF0.38023635745048523
aF0.39783886075019836
aF0.30173507332801819
aF0.54763650894165039
aF0.58382290601730347
aF0.17560297250747681
aF0.23255088925361633
aF0.019014777615666389
aF0.53065204620361328
aF0.79767656326293945
aF0.91490697860717773
aF0.13933694362640381
aF0.8875848650932312
aF0.59062856435775757
aF0.94765746593475342
aF0.12549598515033722
aF0.25931715965270996
aF0.90302097797393799
aF0.60838562250137329
aF0.62594765424728394
aF0.47714692354202271
aF0.84632104635238647
aF0.64194673299789429
aF0.52911067008972168
aF0.45433470606803894
aF0.73338299989700317
aF0.94101941585540771
aF0.98563480377197266
aF0.76038777828216553
aF0.12216657400131226
aF0.55758285522460938
aF0.88833129405975342
aF0.82441717386245728
aF0.90890383720397949
aF0.245388463139534
aF0.60978579521179199
aF0.60910171270370483
aF0.80324190855026245
aF0.090929456055164337
aF0.38415029644966125
aF0.066550172865390778
aF0.3620421290397644
aF0.74237972497940063
aF0.91617780923843384
aF0.24977472424507141
aF0.26901155710220337
aF0.2511056661605835
aF0.58103442192077637
aF0.24595408141613007
aF0.79762548208236694
aF0.17321497201919556
aF0.56927216053009033
aF0.29523086547851562
aF0.50693380832672119
aF0.69098365306854248
aF0.19533622264862061
aF0.032118603587150574
aF0.65744513273239136
aF0.33562031388282776
aF0.78077894449234009
aF0.89428049325942993
aF0.88431805372238159
aF0.091890789568424225
aF0.78359603881835938
aF0.84965765476226807
aF0.44958546757698059
aF0.5653235912322998
aF0.32206994295120239
aF0.51405304670333862
aF0.23970650136470795
aF0.94957292079925537
aF0.48398414254188538
aF0.29603230953216553
aF0.69281977415084839
aF0.54258722066879272
aF0.92555034160614014
aF0.35613495111465454
aF0.62544995546340942
aF0.49474537372589111
aF0.73673862218856812
aF0.18357086181640625
aF0.49508300423622131
aF0.35485601425170898
aF0.58892595767974854
aF0.37480142712593079
aF0.79059857130050659
aF0.36206680536270142
aF0.70223653316497803
aF0.95499986410140991
aF0.59209960699081421
aF0.76771175861358643
aF0.91760998964309692
aF0.35684189200401306
aF0.59717011451721191
aF0.20026224851608276
aF0.27646428346633911
aF0.1855442225933075
aF0.24147836863994598
aF0.58029234409332275
aF0.21240125596523285
aF0.78951191902160645
aF0.73171043395996094
aF0.84879040718078613
aF0.10512815415859222
aF0.47180268168449402
aF0.65622901916503906
aF0.75114792585372925
aF0.27091443538665771
aF0.22995780408382416
aF0.79689931869506836
aF0.42844456434249878
aF0.52831482887268066
aF0.70981127023696899
aF0.15362429618835449
aF0.9035564661026001
aF0.64487200975418091
aF0.88786995410919189
aF0.88974875211715698
aF0.46866416931152344
aF0.57703661918640137
aF0.35317730903625488
aF0.48774474859237671
aF0.43836891651153564
aF0.35546323657035828
aF0.81300234794616699
aF0.72930604219436646
aF0.84092205762863159
aF0.99146050214767456
aF0.61581605672836304
aF0.66357702016830444
aF0.74788737297058105
aF0.43168765306472778
aF0.33542796969413757
aF0.1186346560716629
aF0.9129796028137207
aF0.14919772744178772
aF0.40970557928085327
aF0.093070976436138153
aF0.30885127186775208
aF0.87765771150588989
aF0.58864074945449829
aF0.06016472727060318
aF0.080124124884605408
aF0.40217816829681396
aF0.52174216508865356
aF0.38017991185188293
aF0.46503978967666626
aF0.38436993956565857
aF0.81784665584564209
aF0.75352126359939575
aF0.66662275791168213
aF0.77730876207351685
aF0.29058024287223816
aF0.21684452891349792
aF0.53866732120513916
aF0.38368120789527893
aF0.28666821122169495
aF0.67682796716690063
aF0.95997905731201172
aF0.65853410959243774
aF0.84063595533370972
aF0.49462875723838806
aF0.29811841249465942
aF0.13258533179759979
aF0.28488028049468994
aF0.62892383337020874
aF0.91232365369796753
aF0.27074652910232544
aF0.34712576866149902
aF0.20053720474243164
aF0.8494255542755127
aF0.22238922119140625
aF0.56980133056640625
aF0.56261765956878662
aF0.45896509289741516
aF0.64730197191238403
aF0.50727450847625732
aF0.65653854608535767
aF0.20879949629306793
aF0.35951200127601624
aF0.8919748067855835
aF0.20025394856929779
aF0.15143728256225586
aF0.28080254793167114
aF0.76491701602935791
aF0.70172774791717529
aF0.88612377643585205
aF0.34093153476715088
aF0.82552659511566162
aF0.37542930245399475
aF0.58566480875015259
aF0.86219745874404907
aF0.52481257915496826
aF0.5702439546585083
aF0.32997044920921326
aF0.34087958931922913
aF0.52163267135620117
aF0.93932974338531494
aF0.50936412811279297
aF0.69295316934585571
aF0.021259631961584091
aF0.49718412756919861
aF0.65712499618530273
aF0.84028339385986328
aF0.85637187957763672
aF0.92639786005020142
aF0.66618436574935913
aF0.52604222297668457
aF0.54303789138793945
aF0.35317248106002808
aF0.46733132004737854
aF0.31575027108192444
aF0.26206392049789429
aF0.51102286577224731
aF0.2096341997385025
aF0.081578098237514496
aF0.39760014414787292
aF0.028030717745423317
aF0.67182368040084839
aF0.65621811151504517
aF0.46823722124099731
aF0.4300423264503479
aF0.071154654026031494
aF0.23070020973682404
aF0.24338530004024506
aF0.82163912057876587
aF0.95306676626205444
aF0.94308137893676758
aF0.53469061851501465
aF0.36523380875587463
aF0.66953498125076294
aF0.62055426836013794
aF0.39149287343025208
aF0.3250485360622406
aF0.87573325634002686
aF0.045385781675577164
aF0.48566976189613342
aF0.93802189826965332
aF0.25886082649230957
aF0.10930800437927246
aF0.37171387672424316
aF0.7139173150062561
aF0.35475769639015198
aF0.74830824136734009
aF0.93555086851119995
aF0.69434499740600586
aF0.56925791501998901
aF0.43678763508796692
aF0.25633573532104492
aF0.59938865900039673
aF0.6061626672744751
aF0.94316411018371582
aF0.42003044486045837
aF0.84941095113754272
aF0.98498886823654175
aF0.79201209545135498
aF0.22950457036495209
aF0.40065258741378784
aF0.24125494062900543
aF0.66527825593948364
aF0.8782457709312439
aF0.93007659912109375
aF0.47204029560089111
aF0.48958051204681396
aF0.94813299179077148
aF0.48712968826293945
aF0.6668541431427002
aF0.13435377180576324
aF0.58674138784408569
aF0.57618987560272217
aF0.51213520765304565
aF0.69995874166488647
aF0.30256417393684387
aF0.67508524656295776
aF0.50525999069213867
aF0.64705246686935425
aF0.57264620065689087
aF0.06615021824836731
aF0.72437626123428345
aF0.48721939325332642
aF0.49777582287788391
aF0.26693493127822876
aF0.11509505659341812
aF0.28348201513290405
aF0.15610726177692413
aF0.65986520051956177
aF0.44018808007240295
aF0.068763174116611481
aF0.54584705829620361
aF0.35662618279457092
aF0.47301918268203735
aF0.556995689868927
aF0.33147844672203064
aF0.93876558542251587
aF0.63325148820877075
aF0.65909421443939209
aF0.9406745433807373
aF0.31422442197799683
aF0.8166966438293457
aF0.49052396416664124
aF0.48994413018226624
aF0.15840455889701843
aF0.85480916500091553
aF0.35730236768722534
aF0.906471848487854
aF0.077380262315273285
aF0.90215176343917847
aF0.34013450145721436
aF0.66822725534439087
aF0.094459071755409241
aF0.45790848135948181
aF0.51881325244903564
aF0.1906282901763916
aF0.68927001953125
aF0.67319726943969727
aF0.27872121334075928
aF0.34336096048355103
aF0.53257352113723755
aF0.32553058862686157
aF0.71010226011276245
aF0.18472963571548462
aF0.46174368262290955
aF0.2617790699005127
aF0.51745587587356567
aF0.56035232543945312
aF0.60433453321456909
aF0.70345610380172729
aF0.50070589780807495
aF0.92909902334213257
aF0.24707876145839691
aF0.94388812780380249
aF0.51869630813598633
aF0.14161980152130127
aF0.85895335674285889
aF0.18497070670127869
aF0.52882480621337891
aF0.4413171112537384
aF0.70484960079193115
aF0.46142542362213135
aF0.38826844096183777
aF0.36655223369598389
aF0.79598879814147949
aF0.023426638916134834
aF0.15200886130332947
aF0.85770589113235474
aF0.40853449702262878
aF0.1137247234582901
aF0.061278011649847031
aF0.30134382843971252
aF0.90889203548431396
aF0.25455546379089355
aF0.23017147183418274
aF0.89752960205078125
aF0.2626689076423645
aF0.74946171045303345
aF0.46669331192970276
aF0.62682229280471802
aF0.903911292552948
aF0.29841044545173645
aF0.19343923032283783
aF0.61226004362106323
aF0.84956604242324829
aF0.14473825693130493
aF0.91846036911010742
aF0.79098719358444214
aF0.47358104586601257
aF0.40453320741653442
aF0.56283712387084961
aF0.72851431369781494
aF0.67341572046279907
aF0.70011216402053833
aF0.68586504459381104
aF0.27216464281082153
aF0.63982588052749634
aF0.19834338128566742
aF0.13743501901626587
aF0.46090719103813171
aF0.033756006509065628
aF0.61194705963134766
aF0.18153764307498932
aF0.73736405372619629
aF0.77835166454315186
aF0.65002936124801636
aF0.95164299011230469
aF0.72364270687103271
aF0.77136492729187012
aF0.59084004163742065
aF0.31745225191116333
aF0.88054311275482178
aF0.88031315803527832
aF0.73688274621963501
aF0.67878997325897217
aF0.78623694181442261
aF0.22371362149715424
aF0.69679152965545654
aF0.29223683476448059
aF0.30220624804496765
aF0.91435635089874268
aF0.63616645336151123
aF0.67020970582962036
aF0.55849379301071167
aF0.44175094366073608
aF0.91149258613586426
aF0.63489079475402832
aF0.46486598253250122
aF0.073294244706630707
aF0.41798737645149231
aF0.62286877632141113
aF0.69438010454177856
aF0.86112594604492188
aF0.95618444681167603
aF0.62252599000930786
aF0.82317090034484863
aF0.26324951648712158
aF0.99371916055679321
aF0.10802820324897766
aF0.27927973866462708
aF0.25948223471641541
aF0.90211832523345947
aF0.40300512313842773
aF0.16969096660614014
aF0.58958011865615845
aF0.45081773400306702
aF0.60911571979522705
aF0.7401614785194397
aF0.3796418309211731
aF0.50171887874603271
aF0.57851743698120117
aF0.81642794609069824
aF0.747508704662323
aF0.84341281652450562
aF0.53329581022262573
aF0.21794857084751129
aF0.57193422317504883
aF0.14197279512882233
aF0.086498118937015533
aF0.5881352424621582
aF0.93348151445388794
aF0.30951610207557678
aF0.6460726261138916
aF0.93725985288619995
aF0.34958571195602417
aF0.67793238162994385
aF0.73127913475036621
aF0.52282339334487915
aF0.25514373183250427
aF0.3473459780216217
aF0.88473647832870483
aF0.77617919445037842
aF0.1991279274225235
aF0.57862097024917603
aF0.33357185125350952
aF0.94032639265060425
aF0.76865172386169434
aF0.74686384201049805
aF0.49746114015579224
aF0.62969332933425903
aF0.22500334680080414
aF0.64670103788375854
aF0.67906332015991211
aF0.85454976558685303
aF0.87659323215484619
aF0.68123209476470947
aF0.76404088735580444
aF0.53609311580657959
aF0.1934535950422287
aF0.54874855279922485
aF0.4759296178817749
aF0.78908270597457886
aF0.78272974491119385
aF0.73970139026641846
aF0.050600871443748474
aF0.17677442729473114
aF0.45282799005508423
aF0.56906145811080933
aF0.61380904912948608
aF0.79604929685592651
aF0.61804491281509399
aF0.5130121111869812
aF0.54058104753494263
aF0.47229596972465515
aF0.72067427635192871
aF0.85711979866027832
aF0.38136029243469238
aF0.62037116289138794
aF0.60254329442977905
aF0.55619847774505615
aF0.68263709545135498
aF0.94775110483169556
aF0.26185637712478638
aF0.68296611309051514
aF0.11076353490352631
aF0.41934111714363098
aF0.16290862858295441
aF0.4251251220703125
aF0.65279734134674072
aF0.52391141653060913
aF0.10517414659261703
aF0.43916183710098267
aF0.79925709962844849
aF0.78964841365814209
aF0.87335515022277832
aF0.11331845074892044
aF0.61238843202590942
aF0.9311898946762085
aF0.0088377511128783226
aF0.47585940361022949
aF0.62175536155700684
aF0.75165891647338867
aF0.77708339691162109
aF0.55375373363494873
aF0.60877317190170288
aF0.44529038667678833
aF0.5332522988319397
aF0.87689858675003052
aF0.95409351587295532
aF0.22435617446899414
aF0.18432998657226562
aF0.17791838943958282
aF0.91733783483505249
aF0.36310413479804993
aF0.34628662467002869
aF0.52023953199386597
aF0.55943155288696289
aF0.32442483305931091
aF0.66415113210678101
aF0.84708380699157715
aF0.88899219036102295
aF0.56918692588806152
aF0.68263846635818481
aF0.95487737655639648
aF0.48292753100395203
aF0.33695197105407715
aF0.27988088130950928
aF0.7896883487701416
aF0.25963810086250305
aF0.081525556743144989
aF0.87404447793960571
aF0.46085196733474731
aF0.5508352518081665
aF0.63870489597320557
aF0.58114439249038696
aF0.26007410883903503
aF0.56324666738510132
aF0.91198015213012695
aF0.37034407258033752
aF0.71789908409118652
aF0.63428151607513428
aF0.88576257228851318
aF0.51631760597229004
aF0.86796146631240845
aF0.73539280891418457
aF0.91128617525100708
aF0.46279996633529663
aF0.44236019253730774
aF0.91389775276184082
aF0.31119740009307861
aF0.15297535061836243
aF0.89086341857910156
aF0.58668547868728638
aF0.6634443998336792
aF0.63853150606155396
aF0.44524547457695007
aF0.089626558125019073
aF0.50479847192764282
aF0.72908484935760498
aF0.81415075063705444
aF0.55117112398147583
aF0.28818759322166443
aF0.86528563499450684
aF0.71273094415664673
aF0.53244537115097046
aF0.48941507935523987
aF0.13138794898986816
aF0.55747193098068237
aF0.44769445061683655
aF0.73084890842437744
aF0.65141129493713379
aF0.74467426538467407
aF0.37317284941673279
aF0.55411791801452637
aF0.69840651750564575
aF0.8503727912902832
aF0.85014116764068604
aF0.70770412683486938
aF0.42351329326629639
aF0.22676064074039459
aF0.78933453559875488
aF0.86086165904998779
aF0.52599918842315674
aF0.45290547609329224
aF0.92985987663269043
aF0.84973782300949097
aF0.318052738904953
aF0.3896770179271698
aF0.39193320274353027
aF0.8290102481842041
aF0.8231499195098877
aF0.6953919529914856
aF0.87927061319351196
aF0.23236583173274994
aF0.5603141188621521
aF0.73498964309692383
aF0.24508756399154663
aF0.22372907400131226
aF0.32923239469528198
aF0.49458760023117065
aF0.74444812536239624
aF0.59781551361083984
aF0.79324251413345337
aF0.32769289612770081
aF0.40641933679580688
aF0.35190722346305847
aF0.40191271901130676
aF0.57464069128036499
aF0.53600835800170898
aF0.050775021314620972
aF0.72058218717575073
aF0.28004980087280273
aF0.80445057153701782
aF0.061050087213516235
aF0.75949066877365112
aF0.57862353324890137
aF0.65159571170806885
aF0.89868170022964478
aF0.75748187303543091
aF0.40490376949310303
aF0.71518123149871826
aF0.34471768140792847
aF0.73512881994247437
aF0.85457152128219604
aF0.56834983825683594
aF0.28164470195770264
aF0.54389840364456177
aF0.45807603001594543
aF0.21378263831138611
aF0.90078186988830566
aF0.93541032075881958
aF0.23090898990631104
aF0.50419110059738159
aF0.46886768937110901
aF0.015442176721990108
aF0.78668171167373657
aF0.76855480670928955
aF0.72540360689163208
aF0.49261641502380371
aF0.12992314994335175
aF0.84256255626678467
aF0.6661112904548645
aF0.57275593280792236
aF0.42611595988273621
aF0.84609097242355347
aF0.15508604049682617
aF0.36679920554161072
aF0.22555436193943024
aF0.60695409774780273
aF0.80391108989715576
aF0.48185423016548157
aF0.56554257869720459
aF0.31640347838401794
aF0.11973044276237488
aF0.31977730989456177
aF0.72357332706451416
aF0.5993276834487915
aF0.37614163756370544
aF0.090866662561893463
aF0.05959077924489975
aF0.4496951699256897
aF0.50753891468048096
aF0.63224869966506958
aF0.82512027025222778
aF0.75215107202529907
aF0.56252431869506836
aF0.010896114632487297
aF0.44040191173553467
aF0.40279650688171387
aF0.31791523098945618
aF0.70814210176467896
aF0.075816340744495392
aF0.73278552293777466
aF0.72990942001342773
aF0.30737939476966858
aF0.62850856781005859
aF0.42106819152832031
aF0.49801415205001831
aF0.56271952390670776
aF0.26348543167114258
aF0.55730187892913818
aF0.37957808375358582
aF0.73413479328155518
aF0.77066278457641602
aF0.87799441814422607
aF0.50600439310073853
aF0.13655750453472137
aF0.60582065582275391
aF0.077790789306163788
aF0.61834108829498291
aF0.96037513017654419
aF0.7830280065536499
aF0.58677047491073608
aF0.32823279500007629
aF0.87539321184158325
aF0.5559074878692627
aF0.44211399555206299
aF0.64017695188522339
aF0.84571713209152222
aF0.28449997305870056
aF0.15595677495002747
aF0.41966047883033752
aF0.6742556095123291
aF0.76595479249954224
aF0.48256585001945496
aF0.54759925603866577
aF0.53830486536026001
aF0.22120174765586853
aF0.18717050552368164
aF0.64139747619628906
aF0.28603473305702209
aF0.8261597752571106
aF0.86959898471832275
aF0.16997884213924408
aF0.67176163196563721
aF0.34682050347328186
aF0.61144059896469116
aF0.81051194667816162
aF0.33885765075683594
aF0.81703299283981323
aF0.923023521900177
aF0.93447297811508179
aF0.86501532793045044
aF0.91501718759536743
aF0.85078519582748413
aF0.15481148660182953
aF0.88659048080444336
aF0.50324702262878418
aF0.81477850675582886
aF0.11303631961345673
aF0.85928350687026978
aF0.62401992082595825
aF0.075869455933570862
aF0.27463498711585999
aF0.36476194858551025
aF0.73509353399276733
aF0.43325644731521606
aF0.75422447919845581
aF0.58013290166854858
aF0.84359073638916016
aF0.33419162034988403
aF0.38636055588722229
aF0.2430044561624527
aF0.61131101846694946
aF0.37253910303115845
aF0.2296941876411438
aF0.45273607969284058
aF0.28718724846839905
aF0.78885906934738159
aF0.51799207925796509
aF0.28749018907546997
aF0.64350098371505737
aF0.062685653567314148
aF0.53100240230560303
aF0.75009816884994507
aF0.50348114967346191
aF0.91893446445465088
aF0.68678313493728638
aF0.65249007940292358
aF0.221159428358078
aF0.56724286079406738
aF0.70599699020385742
aF0.64171695709228516
aF0.4793161153793335
aF0.82444471120834351
aF0.69380825757980347
aF0.66103273630142212
aF0.24582068622112274
aF0.81113481521606445
aF0.80532824993133545
aF0.087009064853191376
aF0.8673095703125
aF0.050305288285017014
aF0.041339520364999771
aF0.67219072580337524
aF0.31653672456741333
aF0.26556861400604248
aF0.43257072567939758
aF0.85510188341140747
aF0.67309558391571045
aF0.83161044120788574
aF0.96740818023681641
aF0.27699702978134155
aF0.8407522439956665
aF0.63207948207855225
aF0.53918826580047607
aF0.32223051786422729
aF0.31796962022781372
aF0.74276494979858398
aF0.77118068933486938
aF0.52478587627410889
aF0.87996631860733032
aF0.64414024353027344
aF0.73868858814239502
aF0.55662727355957031
aF0.41925185918807983
aF0.59156215190887451
aF0.6619066596031189
aF0.6198388934135437
aF0.73461562395095825
aF0.66212666034698486
aF0.74563056230545044
aF0.37885499000549316
aF0.31103554368019104
aF0.89640700817108154
aF0.29197549819946289
aF0.76263648271560669
aF0.36113736033439636
aF0.69180601835250854
aF0.23109500110149384
aF0.69275462627410889
aF0.73555082082748413
aF0.85452103614807129
aF0.71885156631469727
aF0.083969578146934509
aF0.06528838723897934
aF0.76084184646606445
aF0.21183732151985168
aF0.47305881977081299
aF0.3140278160572052
aF0.92670696973800659
aF0.87216728925704956
aF0.98134273290634155
aF0.85024654865264893
aF0.7951616644859314
aF0.55473661422729492
aF0.87718117237091064
aF0.69692724943161011
aF0.82237672805786133
aF0.40154001116752625
aF0.62258541584014893
aF0.56474804878234863
aF0.36921924352645874
aF0.37348991632461548
aF0.73938620090484619
aF0.42201918363571167
aF0.41210925579071045
aF0.52534949779510498
aF0.46618190407752991
aF0.60253679752349854
aF0.055085223168134689
aF0.39866453409194946
aF0.46733242273330688
aF0.68650394678115845
aF0.79360371828079224
aF0.65771627426147461
aF0.7486412525177002
aF0.19180217385292053
aF0.21944007277488708
aF0.28434935212135315
aF0.24787433445453644
aF0.48482623696327209
aF0.12245184928178787
aF0.81004410982131958
aF0.68558371067047119
aF0.62305355072021484
aF0.77113187313079834
aF0.24405507743358612
aF0.52368688583374023
aF0.11323358118534088
aF0.46883580088615417
aF0.44086334109306335
aF0.68902182579040527
aF0.86850821971893311
aF0.16965761780738831
aF0.6504669189453125
aF0.43488532304763794
aF0.91636431217193604
aF0.16941691935062408
aF0.61048334836959839
aF0.62577015161514282
aF0.16276906430721283
aF0.18852986395359039
aF0.52185463905334473
aF0.60434561967849731
aF0.58460932970046997
aF0.41845706105232239
aF0.81365013122558594
aF0.86503487825393677
aF0.59317487478256226
aF0.32153880596160889
aF0.89715111255645752
aF0.82417726516723633
aF0.77738535404205322
aF0.59190285205841064
aF0.96919906139373779
aF0.90448778867721558
aF0.70383858680725098
aF0.089896835386753082
aF0.78842413425445557
aF0.49024981260299683
aF0.85759460926055908
aF0.72219705581665039
aF0.71314084529876709
aF0.95308816432952881
aF0.44423985481262207
aF0.06988246738910675
aF0.73961973190307617
aF0.37268552184104919
aF0.53913587331771851
aF0.64593273401260376
aF0.71943956613540649
aF0.26219689846038818
aF0.56764847040176392
aF0.69414234161376953
aF0.64083993434906006
aF0.8200874924659729
aF0.71978718042373657
aF0.82140344381332397
aF0.24635295569896698
aF0.40405330061912537
aF0.25845697522163391
aF0.27116855978965759
aF0.4977850615978241
aF0.89872944355010986
aF0.56141960620880127
aF0.53363430500030518
aF0.67108815908432007
aF0.30737701058387756
aF0.47078078985214233
aF0.37593153119087219
aF0.78785181045532227
aF0.32992488145828247
aF0.8932805061340332
aF0.23119531571865082
aF0.54060548543930054
aF0.31938770413398743
aF0.77910810708999634
aF0.88609838485717773
aF0.41014751791954041
aF0.34214323759078979
aF0.70113933086395264
aF0.2004631906747818
aF0.42873701453208923
aF0.16455870866775513
aF0.57926827669143677
aF0.80788105726242065
aF0.80436158180236816
aF0.49626672267913818
aF0.93587088584899902
aF0.62459444999694824
aF0.49277913570404053
aF0.31686908006668091
aF0.62121200561523438
aF0.81654191017150879
aF0.75360029935836792
aF0.56895512342453003
aF0.55467665195465088
aF0.38172233104705811
aF0.58631962537765503
aF0.88702571392059326
aF0.84543466567993164
aF0.56811618804931641
aF0.71674561500549316
aF0.69799399375915527
aF0.3916785717010498
aF0.029113749042153358
aF0.47644507884979248
aF0.27282252907752991
aF0.68528276681900024
aF0.79292875528335571
aF0.4140152633190155
aF0.38189011812210083
aF0.72037345170974731
aF0.47046351432800293
aF0.065538913011550903
aF0.70833629369735718
aF0.10998202115297318
aF0.67749702930450439
aF0.25832021236419678
aF0.70513707399368286
aF0.85419356822967529
aF0.61751240491867065
aF0.076600141823291779
aF0.81157410144805908
aF0.28761023283004761
aF0.69513309001922607
aF0.16020593047142029
aF0.59088385105133057
aF0.94220930337905884
aF0.72910881042480469
aF0.35938775539398193
aF0.66433733701705933
aF0.25265327095985413
aF0.8807559609413147
aF0.55680835247039795
aF0.64302313327789307
aF0.91355681419372559
aF0.51418870687484741
aF0.10271879285573959
aF0.41289433836936951
aF0.88980937004089355
aF0.71652507781982422
aF0.55886036157608032
aF0.44063600897789001
aF0.59235960245132446
aF0.48554360866546631
aF0.86700040102005005
aF0.44580709934234619
aF0.17222534120082855
aF0.14094701409339905
aF0.86870580911636353
aF0.25862541794776917
aF0.61789315938949585
aF0.55359876155853271
aF0.094360038638114929
aF0.72908830642700195
aF0.3764742910861969
aF0.69898098707199097
aF0.53590810298919678
aF0.070204712450504303
aF0.145682692527771
aF0.10963711142539978
aF0.12008444964885712
aF0.055039912462234497
aF0.66236954927444458
aF0.24011699855327606
aF0.61362534761428833
aF0.48347795009613037
aF0.68644291162490845
aF0.68867236375808716
aF0.84678131341934204
aF0.51564550399780273
aF0.4746374785900116
aF0.44718223810195923
aF0.19191794097423553
aF0.58576196432113647
aF0.67760181427001953
aF0.59624648094177246
aF0.82851177453994751
aF0.54878503084182739
aF0.49667572975158691
aF0.14694683253765106
aF0.50430917739868164
aF0.1235852912068367
aF0.41009423136711121
aF0.286873459815979
aF0.095879644155502319
aF0.68616491556167603
aF0.72073304653167725
aF0.56453084945678711
aF0.41176152229309082
aF0.81097429990768433
aF0.41654402017593384
aF0.8881690502166748
aF0.77841693162918091
aF0.17130662500858307
aF0.73506385087966919
aF0.97090727090835571
aF0.3609481155872345
aF0.79266220331192017
aF0.31313145160675049
aF0.71219491958618164
aF0.73438519239425659
aF0.81267863512039185
aF0.71586650609970093
aF0.49555784463882446
aF0.36703726649284363
aF0.47598260641098022
aF0.40496686100959778
aF0.48201686143875122
aF0.77173477411270142
aF0.14888796210289001
aF0.56834679841995239
aF0.45697945356369019
aF0.79025191068649292
aF0.55218422412872314
aF0.73056131601333618
aF0.36851683259010315
aF0.25383192300796509
aF0.58064174652099609
aF0.7200358510017395
aF0.47855794429779053
aF0.76157069206237793
aF0.76191514730453491
aF0.14577034115791321
aF0.29060956835746765
aF0.94444823265075684
aF0.413126140832901
aF0.091681927442550659
aF0.82706165313720703
aF0.32602652907371521
aF0.020934507250785828
aF0.77922916412353516
aF0.54767340421676636
aF0.35903716087341309
aF0.894115149974823
aF0.8120955228805542
aF0.28583833575248718
aF0.55194371938705444
aF0.51902347803115845
aF0.48430043458938599
aF0.81989115476608276
aF0.56198513507843018
aF0.52489739656448364
aF0.69261986017227173
aF0.059215635061264038
aF0.87214535474777222
aF0.75005096197128296
aF0.15787862241268158
aF0.33963757753372192
aF0.61352455615997314
aF0.046752460300922394
a.