(dp1
S'ind'
p2
(lp3
(I0
I0
tp4
a(I1
I1
tp5
a(I2
I4
tp6
a(I3
I5
tp7
a(I4
I6
tp8
a(I5
I7
tp9
a(I6
I8
tp10
a(I7
I9
tp11
a(I8
I10
tp12
a(I9
I13
tp13
a(I10
I14
tp14
a(I11
I15
tp15
a(I12
I16
tp16
a(I13
I17
tp17
a(I14
I18
tp18
a(I15
I19
tp19
a(I16
I20
tp20
a(I17
I24
tp21
a(I18
I25
tp22
a(I19
I29
tp23
a(I20
I30
tp24
a(I21
I31
tp25
a(I22
I32
tp26
a(I23
I33
tp27
a(I24
I34
tp28
a(I25
I35
tp29
a(I26
I36
tp30
a(I27
I37
tp31
a(I28
I38
tp32
a(I29
I39
tp33
a(I30
I40
tp34
a(I31
I41
tp35
a(I32
I42
tp36
a(I33
I43
tp37
a(I34
I44
tp38
a(I35
I45
tp39
a(I36
I46
tp40
a(I37
I47
tp41
a(I38
I48
tp42
a(I39
I49
tp43
a(I40
I51
tp44
a(I41
I52
tp45
a(I42
I53
tp46
a(I43
I54
tp47
a(I44
I55
tp48
a(I45
I56
tp49
a(I46
I57
tp50
a(I47
I58
tp51
a(I48
I59
tp52
a(I49
I60
tp53
a(I50
I61
tp54
a(I51
I62
tp55
a(I52
I63
tp56
a(I53
I64
tp57
a(I54
I65
tp58
a(I55
I66
tp59
a(I56
I67
tp60
a(I57
I68
tp61
a(I58
I69
tp62
a(I59
I70
tp63
a(I60
I72
tp64
a(I61
I73
tp65
a(I62
I74
tp66
a(I63
I75
tp67
a(I64
I77
tp68
a(I65
I79
tp69
a(I66
I83
tp70
a(I67
I84
tp71
a(I68
I85
tp72
a(I69
I86
tp73
a(I70
I87
tp74
a(I71
I88
tp75
a(I72
I89
tp76
a(I73
I90
tp77
a(I74
I94
tp78
a(I75
I95
tp79
a(I76
I98
tp80
a(I77
I99
tp81
a(I78
I100
tp82
a(I79
I101
tp83
a(I80
I102
tp84
a(I81
I103
tp85
a(I82
I104
tp86
a(I83
I105
tp87
a(I84
I106
tp88
a(I85
I116
tp89
a(I86
I117
tp90
a(I87
I118
tp91
a(I88
I119
tp92
a(I89
I120
tp93
a(I90
I121
tp94
a(I91
I122
tp95
a(I92
I123
tp96
a(I93
I124
tp97
a(I94
I125
tp98
a(I95
I129
tp99
a(I96
I130
tp100
a(I97
I138
tp101
a(I98
I142
tp102
a(I99
I144
tp103
a(I100
I145
tp104
a(I101
I150
tp105
a(I102
I151
tp106
a(I103
I157
tp107
a(I104
I159
tp108
a(I105
I170
tp109
a(I106
I171
tp110
a(I107
I172
tp111
a(I108
I173
tp112
a(I109
I174
tp113
a(I110
I176
tp114
a(I111
I177
tp115
a(I112
I179
tp116
a(I113
I180
tp117
a(I114
I181
tp118
a(I115
I182
tp119
a(I116
I184
tp120
a(I117
I185
tp121
a(I118
I186
tp122
a(I119
I188
tp123
a(I120
I189
tp124
a(I121
I190
tp125
a(I122
I191
tp126
a(I123
I193
tp127
a(I124
I194
tp128
a(I125
I195
tp129
a(I126
I196
tp130
a(I127
I197
tp131
a(I128
I198
tp132
a(I129
I199
tp133
a(I130
I200
tp134
a(I131
I201
tp135
a(I132
I202
tp136
a(I133
I203
tp137
a(I134
I204
tp138
a(I135
I205
tp139
a(I136
I206
tp140
a(I137
I207
tp141
a(I138
I208
tp142
a(I139
I209
tp143
a(I140
I210
tp144
a(I141
I211
tp145
a(I142
I212
tp146
a(I143
I213
tp147
a(I144
I214
tp148
a(I145
I215
tp149
a(I146
I216
tp150
a(I147
I217
tp151
a(I148
I218
tp152
a(I149
I219
tp153
a(I150
I220
tp154
a(I151
I221
tp155
a(I152
I222
tp156
a(I153
I223
tp157
a(I154
I231
tp158
a(I155
I232
tp159
a(I156
I235
tp160
a(I157
I236
tp161
a(I158
I238
tp162
a(I159
I240
tp163
a(I160
I243
tp164
a(I161
I245
tp165
a(I162
I246
tp166
a(I163
I247
tp167
a(I164
I248
tp168
a(I165
I249
tp169
a(I166
I415
tp170
a(I167
I441
tp171
a(I168
I443
tp172
a(I169
I444
tp173
a(I170
I446
tp174
a(I171
I452
tp175
a(I172
I453
tp176
a(I173
I454
tp177
a(I174
I478
tp178
a(I175
I503
tp179
a(I176
I504
tp180
a(I177
I582
tp181
a(I178
I658
tp182
a(I179
I659
tp183
a(I180
I738
tp184
a(I181
I739
tp185
a(I182
I740
tp186
a(I183
I741
tp187
a(I184
I773
tp188
a(I185
I801
tp189
a(I186
I802
tp190
a(I187
I888
tp191
a(I188
I889
tp192
a(I189
I910
tp193
a(I190
I911
tp194
a(I191
I912
tp195
a(I192
I924
tp196
a(I193
I925
tp197
a(I194
I926
tp198
a(I195
I927
tp199
a(I196
I928
tp200
a(I197
I946
tp201
a(I198
I949
tp202
a(I199
I950
tp203
asS'rel'
p204
(dp205
cOrange.orange
__pickleLoaderVariable
p206
(cOrange.feature
Continuous
p207
(dp208
S'source_variable'
p209
NsS'ordered'
p210
I1
sS'var_type'
p211
I2
sS'scientific_format'
p212
I0
sS'random_generator'
p213
NsS'distributed'
p214
I0
sS'number_of_decimals'
p215
I3
sS'end_value'
p216
F0
sS'step_value'
p217
F-1
sS'default_meta_id'
p218
I0
sS'start_value'
p219
F-1
sS'adjust_decimals'
p220
I2
sS'name'
p221
S'96'
p222
stRp223
(dp224
S'get_value_from'
p225
NsbF0.0053753056563436985
sg206
(g207
(dp226
g209
Nsg210
I1
sg211
I2
sg212
I0
sg213
Nsg214
I0
sg215
I3
sg216
F0
sg217
F-1
sg218
I0
sg219
F-1
sg220
I2
sS'name'
p227
S'21'
p228
stRp229
(dp230
g225
NsbF0.0057326843962073326
sg206
(g207
(dp231
g209
Nsg210
I1
sg211
I2
sg212
I0
sg213
Nsg214
I0
sg215
I3
sg216
F0
sg217
F-1
sg218
I0
sg219
F-1
sg220
I2
sS'name'
p232
S'116'
p233
stRp234
(dp235
g225
NsbF0.0044638966210186481
sg206
(g207
(dp236
g209
Nsg210
I1
sg211
I2
sg212
I0
sg213
Nsg214
I0
sg215
I3
sg216
F0
sg217
F-1
sg218
I0
sg219
F-1
sg220
I2
sS'name'
p237
S'117'
p238
stRp239
(dp240
g225
NsbF0.003081565024331212
sg206
(g207
(dp241
g209
Nsg210
I1
sg211
I2
sg212
I0
sg213
Nsg214
I0
sg215
I3
sg216
F0
sg217
F-1
sg218
I0
sg219
F-1
sg220
I2
sS'name'
p242
S'118'
p243
stRp244
(dp245
g225
NsbF0.0048300623893737793
sg206
(g207
(dp246
g209
Nsg210
I1
sg211
I2
sg212
I0
sg213
Nsg214
I0
sg215
I3
sg216
F0
sg217
F-1
sg218
I0
sg219
F-1
sg220
I2
sS'name'
p247
S'187'
p248
stRp249
(dp250
g225
NsbF0.00094836263451725245
sg206
(g207
(dp251
g209
Nsg210
I1
sg211
I2
sg212
I0
sg213
Nsg214
I0
sg215
I3
sg216
F0
sg217
F-1
sg218
I0
sg219
F-1
sg220
I2
sS'name'
p252
S'119'
p253
stRp254
(dp255
g225
NsbF0.0052539873868227005
sg206
(g207
(dp256
g209
Nsg210
I1
sg211
I2
sg212
I0
sg213
Nsg214
I0
sg215
I3
sg216
F0
sg217
F-1
sg218
I0
sg219
F-1
sg220
I2
sS'name'
p257
S'120'
p258
stRp259
(dp260
g225
NsbF0.00082278321497142315
sg206
(g207
(dp261
g209
Nsg210
I1
sg211
I2
sg212
I0
sg213
Nsg214
I0
sg215
I3
sg216
F0
sg217
F-1
sg218
I0
sg219
F-1
sg220
I2
sS'name'
p262
S'178'
p263
stRp264
(dp265
g225
NsbF0.024731125682592392
sg206
(g207
(dp266
g209
Nsg210
I1
sg211
I2
sg212
I0
sg213
Nsg214
I0
sg215
I3
sg216
F0
sg217
F-1
sg218
I0
sg219
F-1
sg220
I2
sS'name'
p267
S'22'
p268
stRp269
(dp270
g225
NsbF0.0095892585813999176
sg206
(g207
(dp271
g209
Nsg210
I1
sg211
I2
sg212
I0
sg213
Nsg214
I0
sg215
I3
sg216
F0
sg217
F-1
sg218
I0
sg219
F-1
sg220
I2
sS'name'
p272
S'115'
p273
stRp274
(dp275
g225
NsbF0.0010682143038138747
sg206
(g207
(dp276
g209
Nsg210
I1
sg211
I2
sg212
I0
sg213
Nsg214
I0
sg215
I3
sg216
F0
sg217
F-1
sg218
I0
sg219
F-1
sg220
I2
sS'name'
p277
S'121'
p278
stRp279
(dp280
g225
NsbF0.0010501289507374167
sg206
(g207
(dp281
g209
Nsg210
I1
sg211
I2
sg212
I0
sg213
Nsg214
I0
sg215
I3
sg216
F0
sg217
F-1
sg218
I0
sg219
F-1
sg220
I2
sS'name'
p282
S'97'
p283
stRp284
(dp285
g225
NsbF0.011590808629989624
sg206
(g207
(dp286
g209
Nsg210
I1
sg211
I2
sg212
I0
sg213
Nsg214
I0
sg215
I3
sg216
F0
sg217
F-1
sg218
I0
sg219
F-1
sg220
I2
sS'name'
p287
S'122'
p288
stRp289
(dp290
g225
NsbF-0.0015160831389948726
sg206
(g207
(dp291
g209
Nsg210
I1
sg211
I2
sg212
I0
sg213
Nsg214
I0
sg215
I3
sg216
F0
sg217
F-1
sg218
I0
sg219
F-1
sg220
I2
sS'name'
p292
S'64'
p293
stRp294
(dp295
g225
NsbF0.0048969783820211887
sg206
(g207
(dp296
g209
Nsg210
I1
sg211
I2
sg212
I0
sg213
Nsg214
I0
sg215
I3
sg216
F0
sg217
F-1
sg218
I0
sg219
F-1
sg220
I2
sS'name'
p297
S'123'
p298
stRp299
(dp300
g225
NsbF0.018188837915658951
sg206
(g207
(dp301
g209
Nsg210
I1
sg211
I2
sg212
I0
sg213
Nsg214
I0
sg215
I3
sg216
F0
sg217
F-1
sg218
I0
sg219
F-1
sg220
I2
sS'name'
p302
S'124'
p303
stRp304
(dp305
g225
NsbF0.011945127509534359
sg206
(g207
(dp306
g209
Nsg210
I1
sg211
I2
sg212
I0
sg213
Nsg214
I0
sg215
I3
sg216
F0
sg217
F-1
sg218
I0
sg219
F-1
sg220
I2
sS'name'
p307
S'125'
p308
stRp309
(dp310
g225
NsbF0.0025763744488358498
sg206
(g207
(dp311
g209
Nsg210
I1
sg211
I2
sg212
I0
sg213
Nsg214
I0
sg215
I3
sg216
F0
sg217
F-1
sg218
I0
sg219
F-1
sg220
I2
sS'name'
p312
S'126'
p313
stRp314
(dp315
g225
NsbF0.0093459906056523323
sg206
(g207
(dp316
g209
Nsg210
I1
sg211
I2
sg212
I0
sg213
Nsg214
I0
sg215
I3
sg216
F0
sg217
F-1
sg218
I0
sg219
F-1
sg220
I2
sS'name'
p317
S'172'
p318
stRp319
(dp320
g225
NsbF0.00071237055817618966
sg206
(g207
(dp321
g209
Nsg210
I1
sg211
I2
sg212
I0
sg213
Nsg214
I0
sg215
I3
sg216
F0
sg217
F-1
sg218
I0
sg219
F-1
sg220
I2
sS'name'
p322
S'176'
p323
stRp324
(dp325
g225
NsbF0.0082706157118082047
sg206
(g207
(dp326
g209
Nsg210
I1
sg211
I2
sg212
I0
sg213
Nsg214
I0
sg215
I3
sg216
F0
sg217
F-1
sg218
I0
sg219
F-1
sg220
I2
sS'name'
p327
S'98'
p328
stRp329
(dp330
g225
NsbF0.0096501605585217476
sg206
(g207
(dp331
g209
Nsg210
I1
sg211
I2
sg212
I0
sg213
Nsg214
I0
sg215
I3
sg216
F0
sg217
F-1
sg218
I0
sg219
F-1
sg220
I2
sS'name'
p332
S'79'
p333
stRp334
(dp335
g225
NsbF0.0080889873206615448
sg206
(g207
(dp336
g209
Nsg210
I1
sg211
I2
sg212
I0
sg213
Nsg214
I0
sg215
I3
sg216
F0
sg217
F-1
sg218
I0
sg219
F-1
sg220
I2
sS'name'
p337
S'128'
p338
stRp339
(dp340
g225
NsbF0.044215932488441467
sg206
(g207
(dp341
g209
Nsg210
I1
sg211
I2
sg212
I0
sg213
Nsg214
I0
sg215
I3
sg216
F0
sg217
F-1
sg218
I0
sg219
F-1
sg220
I2
sS'name'
p342
S'129'
p343
stRp344
(dp345
g225
NsbF0.0079866498708724976
sg206
(g207
(dp346
g209
Nsg210
I1
sg211
I2
sg212
I0
sg213
Nsg214
I0
sg215
I3
sg216
F0
sg217
F-1
sg218
I0
sg219
F-1
sg220
I2
sS'name'
p347
S'68'
p348
stRp349
(dp350
g225
NsbF0.0049310978502035141
sg206
(g207
(dp351
g209
Nsg210
I1
sg211
I2
sg212
I0
sg213
Nsg214
I0
sg215
I3
sg216
F0
sg217
F-1
sg218
I0
sg219
F-1
sg220
I2
sS'name'
p352
S'139'
p353
stRp354
(dp355
g225
NsbF0.0066999080590903759
sg206
(g207
(dp356
g209
Nsg210
I1
sg211
I2
sg212
I0
sg213
Nsg214
I0
sg215
I3
sg216
F0
sg217
F-1
sg218
I0
sg219
F-1
sg220
I2
sS'name'
p357
S'130'
p358
stRp359
(dp360
g225
NsbF0.028846448287367821
sg206
(g207
(dp361
g209
Nsg210
I1
sg211
I2
sg212
I0
sg213
Nsg214
I0
sg215
I3
sg216
F0
sg217
F-1
sg218
I0
sg219
F-1
sg220
I2
sS'name'
p362
S'169'
p363
stRp364
(dp365
g225
NsbF0.0038791366387158632
sg206
(g207
(dp366
g209
Nsg210
I1
sg211
I2
sg212
I0
sg213
Nsg214
I0
sg215
I3
sg216
F0
sg217
F-1
sg218
I0
sg219
F-1
sg220
I2
sS'name'
p367
S'131'
p368
stRp369
(dp370
g225
NsbF0.016406279057264328
sg206
(g207
(dp371
g209
Nsg210
I1
sg211
I2
sg212
I0
sg213
Nsg214
I0
sg215
I3
sg216
F0
sg217
F-1
sg218
I0
sg219
F-1
sg220
I2
sS'name'
p372
S'195'
p373
stRp374
(dp375
g225
NsbF0.0023960322141647339
sg206
(g207
(dp376
g209
Nsg210
I1
sg211
I2
sg212
I0
sg213
Nsg214
I0
sg215
I3
sg216
F0
sg217
F-1
sg218
I0
sg219
F-1
sg220
I2
sS'name'
p377
S'132'
p378
stRp379
(dp380
g225
NsbF0.014363652095198631
sg206
(g207
(dp381
g209
Nsg210
I1
sg211
I2
sg212
I0
sg213
Nsg214
I0
sg215
I3
sg216
F0
sg217
F-1
sg218
I0
sg219
F-1
sg220
I2
sS'name'
p382
S'24'
p383
stRp384
(dp385
g225
NsbF0.0058256164193153381
sg206
(g207
(dp386
g209
Nsg210
I1
sg211
I2
sg212
I0
sg213
Nsg214
I0
sg215
I3
sg216
F0
sg217
F-1
sg218
I0
sg219
F-1
sg220
I2
sS'name'
p387
S'173'
p388
stRp389
(dp390
g225
NsbF0.0011867613065987825
sg206
(g207
(dp391
g209
Nsg210
I1
sg211
I2
sg212
I0
sg213
Nsg214
I0
sg215
I3
sg216
F0
sg217
F-1
sg218
I0
sg219
F-1
sg220
I2
sS'name'
p392
S'133'
p393
stRp394
(dp395
g225
NsbF0.010988895781338215
sg206
(g207
(dp396
g209
Nsg210
I1
sg211
I2
sg212
I0
sg213
Nsg214
I0
sg215
I3
sg216
F0
sg217
F-1
sg218
I0
sg219
F-1
sg220
I2
sS'name'
p397
S'99'
p398
stRp399
(dp400
g225
NsbF0.00079179665772244334
sg206
(g207
(dp401
g209
Nsg210
I1
sg211
I2
sg212
I0
sg213
Nsg214
I0
sg215
I3
sg216
F0
sg217
F-1
sg218
I0
sg219
F-1
sg220
I2
sS'name'
p402
S'134'
p403
stRp404
(dp405
g225
NsbF0.0053293905220925808
sg206
(g207
(dp406
g209
Nsg210
I1
sg211
I2
sg212
I0
sg213
Nsg214
I0
sg215
I3
sg216
F0
sg217
F-1
sg218
I0
sg219
F-1
sg220
I2
sS'name'
p407
S'135'
p408
stRp409
(dp410
g225
NsbF6.3504325225949287e-05
sg206
(g207
(dp411
g209
Nsg210
I1
sg211
I2
sg212
I0
sg213
Nsg214
I0
sg215
I3
sg216
F0
sg217
F-1
sg218
I0
sg219
F-1
sg220
I2
sS'name'
p412
S'136'
p413
stRp414
(dp415
g225
NsbF0.011673419736325741
sg206
(g207
(dp416
g209
Nsg210
I1
sg211
I2
sg212
I0
sg213
Nsg214
I0
sg215
I3
sg216
F0
sg217
F-1
sg218
I0
sg219
F-1
sg220
I2
sS'name'
p417
S'137'
p418
stRp419
(dp420
g225
NsbF0.021836619824171066
sg206
(g207
(dp421
g209
Nsg210
I1
sg211
I2
sg212
I0
sg213
Nsg214
I0
sg215
I3
sg216
F0
sg217
F-1
sg218
I0
sg219
F-1
sg220
I2
sS'name'
p422
S'138'
p423
stRp424
(dp425
g225
NsbF0.03302750363945961
sg206
(g207
(dp426
g209
Nsg210
I1
sg211
I2
sg212
I0
sg213
Nsg214
I0
sg215
I3
sg216
F0
sg217
F-1
sg218
I0
sg219
F-1
sg220
I2
sS'name'
p427
S'62'
p428
stRp429
(dp430
g225
NsbF0.0090538617223501205
sg206
(g207
(dp431
g209
Nsg210
I1
sg211
I2
sg212
I0
sg213
Nsg214
I0
sg215
I3
sg216
F0
sg217
F-1
sg218
I0
sg219
F-1
sg220
I2
sS'name'
p432
S'100'
p433
stRp434
(dp435
g225
NsbF0.015347352251410484
sg206
(g207
(dp436
g209
Nsg210
I1
sg211
I2
sg212
I0
sg213
Nsg214
I0
sg215
I3
sg216
F0
sg217
F-1
sg218
I0
sg219
F-1
sg220
I2
sS'name'
p437
S'81'
p438
stRp439
(dp440
g225
NsbF0.014490495435893536
sg206
(g207
(dp441
g209
Nsg210
I1
sg211
I2
sg212
I0
sg213
Nsg214
I0
sg215
I3
sg216
F0
sg217
F-1
sg218
I0
sg219
F-1
sg220
I2
sS'name'
p442
S'140'
p443
stRp444
(dp445
g225
NsbF0.036319773644208908
sg206
(g207
(dp446
g209
Nsg210
I1
sg211
I2
sg212
I0
sg213
Nsg214
I0
sg215
I3
sg216
F0
sg217
F-1
sg218
I0
sg219
F-1
sg220
I2
sS'name'
p447
S'114'
p448
stRp449
(dp450
g225
NsbF0.016323352232575417
sg206
(g207
(dp451
g209
Nsg210
I1
sg211
I2
sg212
I0
sg213
Nsg214
I0
sg215
I3
sg216
F0
sg217
F-1
sg218
I0
sg219
F-1
sg220
I2
sS'name'
p452
S'141'
p453
stRp454
(dp455
g225
NsbF0.014037982560694218
sg206
(g207
(dp456
g209
Nsg210
I1
sg211
I2
sg212
I0
sg213
Nsg214
I0
sg215
I3
sg216
F0
sg217
F-1
sg218
I0
sg219
F-1
sg220
I2
sS'name'
p457
S'142'
p458
stRp459
(dp460
g225
NsbF0
sg206
(g207
(dp461
g209
Nsg210
I1
sg211
I2
sg212
I0
sg213
Nsg214
I0
sg215
I3
sg216
F0
sg217
F-1
sg218
I0
sg219
F-1
sg220
I2
sS'name'
p462
S'143'
p463
stRp464
(dp465
g225
NsbF0.0042502353899180889
sg206
(g207
(dp466
g209
Nsg210
I1
sg211
I2
sg212
I0
sg213
Nsg214
I0
sg215
I3
sg216
F0
sg217
F-1
sg218
I0
sg219
F-1
sg220
I2
sS'name'
p467
S'144'
p468
stRp469
(dp470
g225
NsbF0.016805056482553482
sg206
(g207
(dp471
g209
Nsg210
I1
sg211
I2
sg212
I0
sg213
Nsg214
I0
sg215
I3
sg216
F0
sg217
F-1
sg218
I0
sg219
F-1
sg220
I2
sS'name'
p472
S'26'
p473
stRp474
(dp475
g225
NsbF0.0054107555188238621
sg206
(g207
(dp476
g209
Nsg210
I1
sg211
I2
sg212
I0
sg213
Nsg214
I0
sg215
I3
sg216
F0
sg217
F-1
sg218
I0
sg219
F-1
sg220
I2
sS'name'
p477
S'7'
stRp478
(dp479
g225
NsbF0.011492042802274227
sg206
(g207
(dp480
g209
Nsg210
I1
sg211
I2
sg212
I0
sg213
Nsg214
I0
sg215
I3
sg216
F0
sg217
F-1
sg218
I0
sg219
F-1
sg220
I2
sS'name'
p481
S'145'
p482
stRp483
(dp484
g225
NsbF0.01405428908765316
sg206
(g207
(dp485
g209
Nsg210
I1
sg211
I2
sg212
I0
sg213
Nsg214
I0
sg215
I3
sg216
F0
sg217
F-1
sg218
I0
sg219
F-1
sg220
I2
sS'name'
p486
S'101'
p487
stRp488
(dp489
g225
NsbF0.0078147044405341148
sg206
(g207
(dp490
g209
Nsg210
I1
sg211
I2
sg212
I0
sg213
Nsg214
I0
sg215
I3
sg216
F0
sg217
F-1
sg218
I0
sg219
F-1
sg220
I2
sS'name'
p491
S'188'
p492
stRp493
(dp494
g225
NsbF-0.00037855858681723475
sg206
(g207
(dp495
g209
Nsg210
I1
sg211
I2
sg212
I0
sg213
Nsg214
I0
sg215
I3
sg216
F0
sg217
F-1
sg218
I0
sg219
F-1
sg220
I2
sS'name'
p496
S'146'
p497
stRp498
(dp499
g225
NsbF0.012823339551687241
sg206
(g207
(dp500
g209
Nsg210
I1
sg211
I2
sg212
I0
sg213
Nsg214
I0
sg215
I3
sg216
F0
sg217
F-1
sg218
I0
sg219
F-1
sg220
I2
sS'name'
p501
S'147'
p502
stRp503
(dp504
g225
NsbF0.014461963437497616
sg206
(g207
(dp505
g209
Nsg210
I1
sg211
I2
sg212
I0
sg213
Nsg214
I0
sg215
I3
sg216
F0
sg217
F-1
sg218
I0
sg219
F-1
sg220
I2
sS'name'
p506
S'148'
p507
stRp508
(dp509
g225
NsbF0.0014295061118900776
sg206
(g207
(dp510
g209
Nsg210
I1
sg211
I2
sg212
I0
sg213
Nsg214
I0
sg215
I3
sg216
F0
sg217
F-1
sg218
I0
sg219
F-1
sg220
I2
sS'name'
p511
S'151'
p512
stRp513
(dp514
g225
NsbF0.0059406757354736328
sg206
(g207
(dp515
g209
Nsg210
I1
sg211
I2
sg212
I0
sg213
Nsg214
I0
sg215
I3
sg216
F0
sg217
F-1
sg218
I0
sg219
F-1
sg220
I2
sS'name'
p516
S'149'
p517
stRp518
(dp519
g225
NsbF0.0023013479076325893
sg206
(g207
(dp520
g209
Nsg210
I1
sg211
I2
sg212
I0
sg213
Nsg214
I0
sg215
I3
sg216
F0
sg217
F-1
sg218
I0
sg219
F-1
sg220
I2
sS'name'
p521
S'150'
p522
stRp523
(dp524
g225
NsbF0.0027253364678472281
sg206
(g207
(dp525
g209
Nsg210
I1
sg211
I2
sg212
I0
sg213
Nsg214
I0
sg215
I3
sg216
F0
sg217
F-1
sg218
I0
sg219
F-1
sg220
I2
sS'name'
p526
S'0'
stRp527
(dp528
g225
NsbF0.00621821079403162
sg206
(g207
(dp529
g209
Nsg210
I1
sg211
I2
sg212
I0
sg213
Nsg214
I0
sg215
I3
sg216
F0
sg217
F-1
sg218
I0
sg219
F-1
sg220
I2
sS'name'
p530
S'102'
p531
stRp532
(dp533
g225
NsbF0.012919743545353413
sg206
(g207
(dp534
g209
Nsg210
I1
sg211
I2
sg212
I0
sg213
Nsg214
I0
sg215
I3
sg216
F0
sg217
F-1
sg218
I0
sg219
F-1
sg220
I2
sS'name'
p535
S'27'
p536
stRp537
(dp538
g225
NsbF0.0061912401579320431
sg206
(g207
(dp539
g209
Nsg210
I1
sg211
I2
sg212
I0
sg213
Nsg214
I0
sg215
I3
sg216
F0
sg217
F-1
sg218
I0
sg219
F-1
sg220
I2
sS'name'
p540
S'182'
p541
stRp542
(dp543
g225
NsbF0.0056294761598110199
sg206
(g207
(dp544
g209
Nsg210
I1
sg211
I2
sg212
I0
sg213
Nsg214
I0
sg215
I3
sg216
F0
sg217
F-1
sg218
I0
sg219
F-1
sg220
I2
sS'name'
p545
S'152'
p546
stRp547
(dp548
g225
NsbF0.019417602568864822
sg206
(g207
(dp549
g209
Nsg210
I1
sg211
I2
sg212
I0
sg213
Nsg214
I0
sg215
I3
sg216
F0
sg217
F-1
sg218
I0
sg219
F-1
sg220
I2
sS'name'
p550
S'153'
p551
stRp552
(dp553
g225
NsbF-0.012216382659971714
sg206
(g207
(dp554
g209
Nsg210
I1
sg211
I2
sg212
I0
sg213
Nsg214
I0
sg215
I3
sg216
F0
sg217
F-1
sg218
I0
sg219
F-1
sg220
I2
sS'name'
p555
S'191'
p556
stRp557
(dp558
g225
NsbF0.0010062153451144695
sg206
(g207
(dp559
g209
Nsg210
I1
sg211
I2
sg212
I0
sg213
Nsg214
I0
sg215
I3
sg216
F0
sg217
F-1
sg218
I0
sg219
F-1
sg220
I2
sS'name'
p560
S'154'
p561
stRp562
(dp563
g225
NsbF0
sg206
(g207
(dp564
g209
Nsg210
I1
sg211
I2
sg212
I0
sg213
Nsg214
I0
sg215
I3
sg216
F0
sg217
F-1
sg218
I0
sg219
F-1
sg220
I2
sS'name'
p565
S'84'
p566
stRp567
(dp568
g225
NsbF0.018038546666502953
sg206
(g207
(dp569
g209
Nsg210
I1
sg211
I2
sg212
I0
sg213
Nsg214
I0
sg215
I3
sg216
F0
sg217
F-1
sg218
I0
sg219
F-1
sg220
I2
sS'name'
p570
S'155'
p571
stRp572
(dp573
g225
NsbF0.0013916674070060253
sg206
(g207
(dp574
g209
Nsg210
I1
sg211
I2
sg212
I0
sg213
Nsg214
I0
sg215
I3
sg216
F0
sg217
F-1
sg218
I0
sg219
F-1
sg220
I2
sS'name'
p575
S'156'
p576
stRp577
(dp578
g225
NsbF6.3349143601953983e-05
sg206
(g207
(dp579
g209
Nsg210
I1
sg211
I2
sg212
I0
sg213
Nsg214
I0
sg215
I3
sg216
F0
sg217
F-1
sg218
I0
sg219
F-1
sg220
I2
sS'name'
p580
S'65'
p581
stRp582
(dp583
g225
NsbF0.005298146978020668
sg206
(g207
(dp584
g209
Nsg210
I1
sg211
I2
sg212
I0
sg213
Nsg214
I0
sg215
I3
sg216
F0
sg217
F-1
sg218
I0
sg219
F-1
sg220
I2
sS'name'
p585
S'9'
stRp586
(dp587
g225
NsbF0.0048762038350105286
sg206
(g207
(dp588
g209
Nsg210
I1
sg211
I2
sg212
I0
sg213
Nsg214
I0
sg215
I3
sg216
F0
sg217
F-1
sg218
I0
sg219
F-1
sg220
I2
sS'name'
p589
S'157'
p590
stRp591
(dp592
g225
NsbF0.0028312928043305874
sg206
(g207
(dp593
g209
Nsg210
I1
sg211
I2
sg212
I0
sg213
Nsg214
I0
sg215
I3
sg216
F0
sg217
F-1
sg218
I0
sg219
F-1
sg220
I2
sS'name'
p594
S'103'
p595
stRp596
(dp597
g225
NsbF0.0083069261163473129
sg206
(g207
(dp598
g209
Nsg210
I1
sg211
I2
sg212
I0
sg213
Nsg214
I0
sg215
I3
sg216
F0
sg217
F-1
sg218
I0
sg219
F-1
sg220
I2
sS'name'
p599
S'158'
p600
stRp601
(dp602
g225
NsbF0.013212196528911591
sg206
(g207
(dp603
g209
Nsg210
I1
sg211
I2
sg212
I0
sg213
Nsg214
I0
sg215
I3
sg216
F0
sg217
F-1
sg218
I0
sg219
F-1
sg220
I2
sS'name'
p604
S'196'
p605
stRp606
(dp607
g225
NsbF9.4127404736354947e-05
sg206
(g207
(dp608
g209
Nsg210
I1
sg211
I2
sg212
I0
sg213
Nsg214
I0
sg215
I3
sg216
F0
sg217
F-1
sg218
I0
sg219
F-1
sg220
I2
sS'name'
p609
S'159'
p610
stRp611
(dp612
g225
NsbF0
sg206
(g207
(dp613
g209
Nsg210
I1
sg211
I2
sg212
I0
sg213
Nsg214
I0
sg215
I3
sg216
F0
sg217
F-1
sg218
I0
sg219
F-1
sg220
I2
sS'name'
p614
S'160'
p615
stRp616
(dp617
g225
NsbF-0.0017979084514081478
sg206
(g207
(dp618
g209
Nsg210
I1
sg211
I2
sg212
I0
sg213
Nsg214
I0
sg215
I3
sg216
F0
sg217
F-1
sg218
I0
sg219
F-1
sg220
I2
sS'name'
p619
S'161'
p620
stRp621
(dp622
g225
NsbF0.0016214249189943075
sg206
(g207
(dp623
g209
Nsg210
I1
sg211
I2
sg212
I0
sg213
Nsg214
I0
sg215
I3
sg216
F0
sg217
F-1
sg218
I0
sg219
F-1
sg220
I2
sS'name'
p624
S'162'
p625
stRp626
(dp627
g225
NsbF0
sg206
(g207
(dp628
g209
Nsg210
I1
sg211
I2
sg212
I0
sg213
Nsg214
I0
sg215
I3
sg216
F0
sg217
F-1
sg218
I0
sg219
F-1
sg220
I2
sS'name'
p629
S'66'
p630
stRp631
(dp632
g225
NsbF0.0039455508813261986
sg206
(g207
(dp633
g209
Nsg210
I1
sg211
I2
sg212
I0
sg213
Nsg214
I0
sg215
I3
sg216
F0
sg217
F-1
sg218
I0
sg219
F-1
sg220
I2
sS'name'
p634
S'48'
p635
stRp636
(dp637
g225
NsbF0.0081318039447069168
sg206
(g207
(dp638
g209
Nsg210
I1
sg211
I2
sg212
I0
sg213
Nsg214
I0
sg215
I3
sg216
F0
sg217
F-1
sg218
I0
sg219
F-1
sg220
I2
sS'name'
p639
S'29'
p640
stRp641
(dp642
g225
NsbF-0.00047868239926174283
sg206
(g207
(dp643
g209
Nsg210
I1
sg211
I2
sg212
I0
sg213
Nsg214
I0
sg215
I3
sg216
F0
sg217
F-1
sg218
I0
sg219
F-1
sg220
I2
sS'name'
p644
S'164'
p645
stRp646
(dp647
g225
NsbF0.00020098395179957151
sg206
(g207
(dp648
g209
Nsg210
I1
sg211
I2
sg212
I0
sg213
Nsg214
I0
sg215
I3
sg216
F0
sg217
F-1
sg218
I0
sg219
F-1
sg220
I2
sS'name'
p649
S'165'
p650
stRp651
(dp652
g225
NsbF0.0016942622605711222
sg206
(g207
(dp653
g209
Nsg210
I1
sg211
I2
sg212
I0
sg213
Nsg214
I0
sg215
I3
sg216
F0
sg217
F-1
sg218
I0
sg219
F-1
sg220
I2
sS'name'
p654
S'166'
p655
stRp656
(dp657
g225
NsbF0.0030902086291462183
sg206
(g207
(dp658
g209
Nsg210
I1
sg211
I2
sg212
I0
sg213
Nsg214
I0
sg215
I3
sg216
F0
sg217
F-1
sg218
I0
sg219
F-1
sg220
I2
sS'name'
p659
S'181'
p660
stRp661
(dp662
g225
NsbF0.0034667698200792074
sg206
(g207
(dp663
g209
Nsg210
I1
sg211
I2
sg212
I0
sg213
Nsg214
I0
sg215
I3
sg216
F0
sg217
F-1
sg218
I0
sg219
F-1
sg220
I2
sS'name'
p664
S'167'
p665
stRp666
(dp667
g225
NsbF0.0030266477260738611
sg206
(g207
(dp668
g209
Nsg210
I1
sg211
I2
sg212
I0
sg213
Nsg214
I0
sg215
I3
sg216
F0
sg217
F-1
sg218
I0
sg219
F-1
sg220
I2
sS'name'
p669
S'163'
p670
stRp671
(dp672
g225
NsbF-0.0042642261832952499
sg206
(g207
(dp673
g209
Nsg210
I1
sg211
I2
sg212
I0
sg213
Nsg214
I0
sg215
I3
sg216
F0
sg217
F-1
sg218
I0
sg219
F-1
sg220
I2
sS'name'
p674
S'168'
p675
stRp676
(dp677
g225
NsbF0.0031401591841131449
sg206
(g207
(dp678
g209
Nsg210
I1
sg211
I2
sg212
I0
sg213
Nsg214
I0
sg215
I3
sg216
F0
sg217
F-1
sg218
I0
sg219
F-1
sg220
I2
sS'name'
p679
S'86'
p680
stRp681
(dp682
g225
NsbF0.018759505823254585
sg206
(g207
(dp683
g209
Nsg210
I1
sg211
I2
sg212
I0
sg213
Nsg214
I0
sg215
I3
sg216
F0
sg217
F-1
sg218
I0
sg219
F-1
sg220
I2
sS'name'
p684
S'3'
stRp685
(dp686
g225
NsbF0.015447584912180901
sg206
(g207
(dp687
g209
Nsg210
I1
sg211
I2
sg212
I0
sg213
Nsg214
I0
sg215
I3
sg216
F0
sg217
F-1
sg218
I0
sg219
F-1
sg220
I2
sS'name'
p688
S'73'
p689
stRp690
(dp691
g225
NsbF0.0062785805203020573
sg206
(g207
(dp692
g209
Nsg210
I1
sg211
I2
sg212
I0
sg213
Nsg214
I0
sg215
I3
sg216
F0
sg217
F-1
sg218
I0
sg219
F-1
sg220
I2
sS'name'
p693
S'105'
p694
stRp695
(dp696
g225
NsbF-0.0024202261120080948
sg206
(g207
(dp697
g209
Nsg210
I1
sg211
I2
sg212
I0
sg213
Nsg214
I0
sg215
I3
sg216
F0
sg217
F-1
sg218
I0
sg219
F-1
sg220
I2
sS'name'
p698
S'170'
p699
stRp700
(dp701
g225
NsbF0.0020453515462577343
sg206
(g207
(dp702
g209
Nsg210
I1
sg211
I2
sg212
I0
sg213
Nsg214
I0
sg215
I3
sg216
F0
sg217
F-1
sg218
I0
sg219
F-1
sg220
I2
sS'name'
p703
S'59'
p704
stRp705
(dp706
g225
NsbF0.0049109053798019886
sg206
(g207
(dp707
g209
Nsg210
I1
sg211
I2
sg212
I0
sg213
Nsg214
I0
sg215
I3
sg216
F0
sg217
F-1
sg218
I0
sg219
F-1
sg220
I2
sS'name'
p708
S'185'
p709
stRp710
(dp711
g225
NsbF0.0085265971720218658
sg206
(g207
(dp712
g209
Nsg210
I1
sg211
I2
sg212
I0
sg213
Nsg214
I0
sg215
I3
sg216
F0
sg217
F-1
sg218
I0
sg219
F-1
sg220
I2
sS'name'
p713
S'60'
p714
stRp715
(dp716
g225
NsbF0.010004950687289238
sg206
(g207
(dp717
g209
Nsg210
I1
sg211
I2
sg212
I0
sg213
Nsg214
I0
sg215
I3
sg216
F0
sg217
F-1
sg218
I0
sg219
F-1
sg220
I2
sS'name'
p718
S'179'
p719
stRp720
(dp721
g225
NsbF0.0087767569348216057
sg206
(g207
(dp722
g209
Nsg210
I1
sg211
I2
sg212
I0
sg213
Nsg214
I0
sg215
I3
sg216
F0
sg217
F-1
sg218
I0
sg219
F-1
sg220
I2
sS'name'
p723
S'61'
p724
stRp725
(dp726
g225
NsbF0.0072754546999931335
sg206
(g207
(dp727
g209
Nsg210
I1
sg211
I2
sg212
I0
sg213
Nsg214
I0
sg215
I3
sg216
F0
sg217
F-1
sg218
I0
sg219
F-1
sg220
I2
sS'name'
p728
S'4'
stRp729
(dp730
g225
NsbF0.017238978296518326
sg206
(g207
(dp731
g209
Nsg210
I1
sg211
I2
sg212
I0
sg213
Nsg214
I0
sg215
I3
sg216
F0
sg217
F-1
sg218
I0
sg219
F-1
sg220
I2
sS'name'
p732
S'192'
p733
stRp734
(dp735
g225
NsbF0.012597165070474148
sg206
(g207
(dp736
g209
Nsg210
I1
sg211
I2
sg212
I0
sg213
Nsg214
I0
sg215
I3
sg216
F0
sg217
F-1
sg218
I0
sg219
F-1
sg220
I2
sS'name'
p737
S'106'
p738
stRp739
(dp740
g225
NsbF0.0012713660253211856
sg206
(g207
(dp741
g209
Nsg210
I1
sg211
I2
sg212
I0
sg213
Nsg214
I0
sg215
I3
sg216
F0
sg217
F-1
sg218
I0
sg219
F-1
sg220
I2
sS'name'
p742
S'6'
stRp743
(dp744
g225
NsbF0.01004263199865818
sg206
(g207
(dp745
g209
Nsg210
I1
sg211
I2
sg212
I0
sg213
Nsg214
I0
sg215
I3
sg216
F0
sg217
F-1
sg218
I0
sg219
F-1
sg220
I2
sS'name'
p746
S'87'
p747
stRp748
(dp749
g225
NsbF0.0043249772861599922
sg206
(g207
(dp750
g209
Nsg210
I1
sg211
I2
sg212
I0
sg213
Nsg214
I0
sg215
I3
sg216
F0
sg217
F-1
sg218
I0
sg219
F-1
sg220
I2
sS'name'
p751
S'63'
p752
stRp753
(dp754
g225
NsbF0.0059524737298488617
sg206
(g207
(dp755
g209
Nsg210
I1
sg211
I2
sg212
I0
sg213
Nsg214
I0
sg215
I3
sg216
F0
sg217
F-1
sg218
I0
sg219
F-1
sg220
I2
sS'name'
p756
S'8'
stRp757
(dp758
g225
NsbF0.0099033825099468231
sg206
(g207
(dp759
g209
Nsg210
I1
sg211
I2
sg212
I0
sg213
Nsg214
I0
sg215
I3
sg216
F0
sg217
F-1
sg218
I0
sg219
F-1
sg220
I2
sS'name'
p760
S'1'
stRp761
(dp762
g225
NsbF0.023035379126667976
sg206
(g207
(dp763
g209
Nsg210
I1
sg211
I2
sg212
I0
sg213
Nsg214
I0
sg215
I3
sg216
F0
sg217
F-1
sg218
I0
sg219
F-1
sg220
I2
sS'name'
p764
S'2'
stRp765
(dp766
g225
NsbF0.0060939043760299683
sg206
(g207
(dp767
g209
Nsg210
I1
sg211
I2
sg212
I0
sg213
Nsg214
I0
sg215
I3
sg216
F0
sg217
F-1
sg218
I0
sg219
F-1
sg220
I2
sS'name'
p768
S'67'
p769
stRp770
(dp771
g225
NsbF0.0028159348294138908
sg206
(g207
(dp772
g209
Nsg210
I1
sg211
I2
sg212
I0
sg213
Nsg214
I0
sg215
I3
sg216
F0
sg217
F-1
sg218
I0
sg219
F-1
sg220
I2
sS'name'
p773
S'10'
p774
stRp775
(dp776
g225
NsbF0.025125116109848022
sg206
(g207
(dp777
g209
Nsg210
I1
sg211
I2
sg212
I0
sg213
Nsg214
I0
sg215
I3
sg216
F0
sg217
F-1
sg218
I0
sg219
F-1
sg220
I2
sS'name'
p778
S'88'
p779
stRp780
(dp781
g225
NsbF-0.0024939840659499168
sg206
(g207
(dp782
g209
Nsg210
I1
sg211
I2
sg212
I0
sg213
Nsg214
I0
sg215
I3
sg216
F0
sg217
F-1
sg218
I0
sg219
F-1
sg220
I2
sS'name'
p783
S'12'
p784
stRp785
(dp786
g225
NsbF0.0077696638181805611
sg206
(g207
(dp787
g209
Nsg210
I1
sg211
I2
sg212
I0
sg213
Nsg214
I0
sg215
I3
sg216
F0
sg217
F-1
sg218
I0
sg219
F-1
sg220
I2
sS'name'
p788
S'107'
p789
stRp790
(dp791
g225
NsbF0.0099747888743877411
sg206
(g207
(dp792
g209
Nsg210
I1
sg211
I2
sg212
I0
sg213
Nsg214
I0
sg215
I3
sg216
F0
sg217
F-1
sg218
I0
sg219
F-1
sg220
I2
sS'name'
p793
S'13'
p794
stRp795
(dp796
g225
NsbF0.0082478960976004601
sg206
(g207
(dp797
g209
Nsg210
I1
sg211
I2
sg212
I0
sg213
Nsg214
I0
sg215
I3
sg216
F0
sg217
F-1
sg218
I0
sg219
F-1
sg220
I2
sS'name'
p798
S'14'
p799
stRp800
(dp801
g225
NsbF0.005102627445012331
sg206
(g207
(dp802
g209
Nsg210
I1
sg211
I2
sg212
I0
sg213
Nsg214
I0
sg215
I3
sg216
F0
sg217
F-1
sg218
I0
sg219
F-1
sg220
I2
sS'name'
p803
S'15'
p804
stRp805
(dp806
g225
NsbF0.0097728725522756577
sg206
(g207
(dp807
g209
Nsg210
I1
sg211
I2
sg212
I0
sg213
Nsg214
I0
sg215
I3
sg216
F0
sg217
F-1
sg218
I0
sg219
F-1
sg220
I2
sS'name'
p808
S'16'
p809
stRp810
(dp811
g225
NsbF-0.0005656565772369504
sg206
(g207
(dp812
g209
Nsg210
I1
sg211
I2
sg212
I0
sg213
Nsg214
I0
sg215
I3
sg216
F0
sg217
F-1
sg218
I0
sg219
F-1
sg220
I2
sS'name'
p813
S'193'
p814
stRp815
(dp816
g225
NsbF0.012204829603433609
sg206
(g207
(dp817
g209
Nsg210
I1
sg211
I2
sg212
I0
sg213
Nsg214
I0
sg215
I3
sg216
F0
sg217
F-1
sg218
I0
sg219
F-1
sg220
I2
sS'name'
p818
S'17'
p819
stRp820
(dp821
g225
NsbF0.0072780274786055088
sg206
(g207
(dp822
g209
Nsg210
I1
sg211
I2
sg212
I0
sg213
Nsg214
I0
sg215
I3
sg216
F0
sg217
F-1
sg218
I0
sg219
F-1
sg220
I2
sS'name'
p823
S'70'
p824
stRp825
(dp826
g225
NsbF0.0087287044152617455
sg206
(g207
(dp827
g209
Nsg210
I1
sg211
I2
sg212
I0
sg213
Nsg214
I0
sg215
I3
sg216
F0
sg217
F-1
sg218
I0
sg219
F-1
sg220
I2
sS'name'
p828
S'104'
p829
stRp830
(dp831
g225
NsbF0.005798358004540205
sg206
(g207
(dp832
g209
Nsg210
I1
sg211
I2
sg212
I0
sg213
Nsg214
I0
sg215
I3
sg216
F0
sg217
F-1
sg218
I0
sg219
F-1
sg220
I2
sS'name'
p833
S'108'
p834
stRp835
(dp836
g225
NsbF-0.0011199649889022112
sg206
(g207
(dp837
g209
Nsg210
I1
sg211
I2
sg212
I0
sg213
Nsg214
I0
sg215
I3
sg216
F0
sg217
F-1
sg218
I0
sg219
F-1
sg220
I2
sS'name'
p838
S'74'
p839
stRp840
(dp841
g225
NsbF0.00069736409932374954
sg206
(g207
(dp842
g209
Nsg210
I1
sg211
I2
sg212
I0
sg213
Nsg214
I0
sg215
I3
sg216
F0
sg217
F-1
sg218
I0
sg219
F-1
sg220
I2
sS'name'
p843
S'89'
p844
stRp845
(dp846
g225
NsbF0.0037984123919159174
sg206
(g207
(dp847
g209
Nsg210
I1
sg211
I2
sg212
I0
sg213
Nsg214
I0
sg215
I3
sg216
F0
sg217
F-1
sg218
I0
sg219
F-1
sg220
I2
sS'name'
p848
S'194'
p849
stRp850
(dp851
g225
NsbF0.014905761927366257
sg206
(g207
(dp852
g209
Nsg210
I1
sg211
I2
sg212
I0
sg213
Nsg214
I0
sg215
I3
sg216
F0
sg217
F-1
sg218
I0
sg219
F-1
sg220
I2
sS'name'
p853
S'75'
p854
stRp855
(dp856
g225
NsbF0.006744979415088892
sg206
(g207
(dp857
g209
Nsg210
I1
sg211
I2
sg212
I0
sg213
Nsg214
I0
sg215
I3
sg216
F0
sg217
F-1
sg218
I0
sg219
F-1
sg220
I2
sS'name'
p858
S'20'
p859
stRp860
(dp861
g225
NsbF0.010325497016310692
sg206
(g207
(dp862
g209
Nsg210
I1
sg211
I2
sg212
I0
sg213
Nsg214
I0
sg215
I3
sg216
F0
sg217
F-1
sg218
I0
sg219
F-1
sg220
I2
sS'name'
p863
S'77'
p864
stRp865
(dp866
g225
NsbF0.0082059996202588081
sg206
(g207
(dp867
g209
Nsg210
I1
sg211
I2
sg212
I0
sg213
Nsg214
I0
sg215
I3
sg216
F0
sg217
F-1
sg218
I0
sg219
F-1
sg220
I2
sS'name'
p868
S'78'
p869
stRp870
(dp871
g225
NsbF0.0085089141502976418
sg206
(g207
(dp872
g209
Nsg210
I1
sg211
I2
sg212
I0
sg213
Nsg214
I0
sg215
I3
sg216
F0
sg217
F-1
sg218
I0
sg219
F-1
sg220
I2
sS'name'
p873
S'197'
p874
stRp875
(dp876
g225
NsbF0.0063245701603591442
sg206
(g207
(dp877
g209
Nsg210
I1
sg211
I2
sg212
I0
sg213
Nsg214
I0
sg215
I3
sg216
F0
sg217
F-1
sg218
I0
sg219
F-1
sg220
I2
sS'name'
p878
S'23'
p879
stRp880
(dp881
g225
NsbF0.0040603745728731155
sg206
(g207
(dp882
g209
Nsg210
I1
sg211
I2
sg212
I0
sg213
Nsg214
I0
sg215
I3
sg216
F0
sg217
F-1
sg218
I0
sg219
F-1
sg220
I2
sS'name'
p883
S'90'
p884
stRp885
(dp886
g225
NsbF0.00060022925026714802
sg206
(g207
(dp887
g209
Nsg210
I1
sg211
I2
sg212
I0
sg213
Nsg214
I0
sg215
I3
sg216
F0
sg217
F-1
sg218
I0
sg219
F-1
sg220
I2
sS'name'
p888
S'180'
p889
stRp890
(dp891
g225
NsbF0.01076300535351038
sg206
(g207
(dp892
g209
Nsg210
I1
sg211
I2
sg212
I0
sg213
Nsg214
I0
sg215
I3
sg216
F0
sg217
F-1
sg218
I0
sg219
F-1
sg220
I2
sS'name'
p893
S'80'
p894
stRp895
(dp896
g225
NsbF0.0066681550815701485
sg206
(g207
(dp897
g209
Nsg210
I1
sg211
I2
sg212
I0
sg213
Nsg214
I0
sg215
I3
sg216
F0
sg217
F-1
sg218
I0
sg219
F-1
sg220
I2
sS'name'
p898
S'109'
p899
stRp900
(dp901
g225
NsbF0.0060066324658691883
sg206
(g207
(dp902
g209
Nsg210
I1
sg211
I2
sg212
I0
sg213
Nsg214
I0
sg215
I3
sg216
F0
sg217
F-1
sg218
I0
sg219
F-1
sg220
I2
sS'name'
p903
S'25'
p904
stRp905
(dp906
g225
NsbF0.01296942587941885
sg206
(g207
(dp907
g209
Nsg210
I1
sg211
I2
sg212
I0
sg213
Nsg214
I0
sg215
I3
sg216
F0
sg217
F-1
sg218
I0
sg219
F-1
sg220
I2
sS'name'
p908
S'82'
p909
stRp910
(dp911
g225
NsbF0.015735713765025139
sg206
(g207
(dp912
g209
Nsg210
I1
sg211
I2
sg212
I0
sg213
Nsg214
I0
sg215
I3
sg216
F0
sg217
F-1
sg218
I0
sg219
F-1
sg220
I2
sS'name'
p913
S'189'
p914
stRp915
(dp916
g225
NsbF0.012348581105470657
sg206
(g207
(dp917
g209
Nsg210
I1
sg211
I2
sg212
I0
sg213
Nsg214
I0
sg215
I3
sg216
F0
sg217
F-1
sg218
I0
sg219
F-1
sg220
I2
sS'name'
p918
S'83'
p919
stRp920
(dp921
g225
NsbF0.010026660747826099
sg206
(g207
(dp922
g209
Nsg210
I1
sg211
I2
sg212
I0
sg213
Nsg214
I0
sg215
I3
sg216
F0
sg217
F-1
sg218
I0
sg219
F-1
sg220
I2
sS'name'
p923
S'28'
p924
stRp925
(dp926
g225
NsbF0.014302173629403114
sg206
(g207
(dp927
g209
Nsg210
I1
sg211
I2
sg212
I0
sg213
Nsg214
I0
sg215
I3
sg216
F0
sg217
F-1
sg218
I0
sg219
F-1
sg220
I2
sS'name'
p928
S'85'
p929
stRp930
(dp931
g225
NsbF0.0056227771565318108
sg206
(g207
(dp932
g209
Nsg210
I1
sg211
I2
sg212
I0
sg213
Nsg214
I0
sg215
I3
sg216
F0
sg217
F-1
sg218
I0
sg219
F-1
sg220
I2
sS'name'
p933
S'72'
p934
stRp935
(dp936
g225
NsbF0.0040180841460824013
sg206
(g207
(dp937
g209
Nsg210
I1
sg211
I2
sg212
I0
sg213
Nsg214
I0
sg215
I3
sg216
F0
sg217
F-1
sg218
I0
sg219
F-1
sg220
I2
sS'name'
p938
S'110'
p939
stRp940
(dp941
g225
NsbF0.016177797690033913
sg206
(g207
(dp942
g209
Nsg210
I1
sg211
I2
sg212
I0
sg213
Nsg214
I0
sg215
I3
sg216
F0
sg217
F-1
sg218
I0
sg219
F-1
sg220
I2
sS'name'
p943
S'30'
p944
stRp945
(dp946
g225
NsbF0.001222308143042028
sg206
(g207
(dp947
g209
Nsg210
I1
sg211
I2
sg212
I0
sg213
Nsg214
I0
sg215
I3
sg216
F0
sg217
F-1
sg218
I0
sg219
F-1
sg220
I2
sS'name'
p948
S'91'
p949
stRp950
(dp951
g225
NsbF0.0030798367224633694
sg206
(g207
(dp952
g209
Nsg210
I1
sg211
I2
sg212
I0
sg213
Nsg214
I0
sg215
I3
sg216
F0
sg217
F-1
sg218
I0
sg219
F-1
sg220
I2
sS'name'
p953
S'186'
p954
stRp955
(dp956
g225
NsbF0.00043850886868312955
sg206
(g207
(dp957
g209
Nsg210
I1
sg211
I2
sg212
I0
sg213
Nsg214
I0
sg215
I3
sg216
F0
sg217
F-1
sg218
I0
sg219
F-1
sg220
I2
sS'name'
p958
S'31'
p959
stRp960
(dp961
g225
NsbF0.0064764712005853653
sg206
(g207
(dp962
g209
Nsg210
I1
sg211
I2
sg212
I0
sg213
Nsg214
I0
sg215
I3
sg216
F0
sg217
F-1
sg218
I0
sg219
F-1
sg220
I2
sS'name'
p963
S'93'
p964
stRp965
(dp966
g225
NsbF-0.0021316155325621367
sg206
(g207
(dp967
g209
Nsg210
I1
sg211
I2
sg212
I0
sg213
Nsg214
I0
sg215
I3
sg216
F0
sg217
F-1
sg218
I0
sg219
F-1
sg220
I2
sS'name'
p968
S'32'
p969
stRp970
(dp971
g225
NsbF0.012727618217468262
sg206
(g207
(dp972
g209
Nsg210
I1
sg211
I2
sg212
I0
sg213
Nsg214
I0
sg215
I3
sg216
F0
sg217
F-1
sg218
I0
sg219
F-1
sg220
I2
sS'name'
p973
S'174'
p974
stRp975
(dp976
g225
NsbF0.011453143320977688
sg206
(g207
(dp977
g209
Nsg210
I1
sg211
I2
sg212
I0
sg213
Nsg214
I0
sg215
I3
sg216
F0
sg217
F-1
sg218
I0
sg219
F-1
sg220
I2
sS'name'
p978
S'33'
p979
stRp980
(dp981
g225
NsbF0.0059756701812148094
sg206
(g207
(dp982
g209
Nsg210
I1
sg211
I2
sg212
I0
sg213
Nsg214
I0
sg215
I3
sg216
F0
sg217
F-1
sg218
I0
sg219
F-1
sg220
I2
sS'name'
p983
S'34'
p984
stRp985
(dp986
g225
NsbF0.011378300376236439
sg206
(g207
(dp987
g209
Nsg210
I1
sg211
I2
sg212
I0
sg213
Nsg214
I0
sg215
I3
sg216
F0
sg217
F-1
sg218
I0
sg219
F-1
sg220
I2
sS'name'
p988
S'35'
p989
stRp990
(dp991
g225
NsbF0.018352152779698372
sg206
(g207
(dp992
g209
Nsg210
I1
sg211
I2
sg212
I0
sg213
Nsg214
I0
sg215
I3
sg216
F0
sg217
F-1
sg218
I0
sg219
F-1
sg220
I2
sS'name'
p993
S'92'
p994
stRp995
(dp996
g225
NsbF0.002524249954149127
sg206
(g207
(dp997
g209
Nsg210
I1
sg211
I2
sg212
I0
sg213
Nsg214
I0
sg215
I3
sg216
F0
sg217
F-1
sg218
I0
sg219
F-1
sg220
I2
sS'name'
p998
S'36'
p999
stRp1000
(dp1001
g225
NsbF0.0087615232914686203
sg206
(g207
(dp1002
g209
Nsg210
I1
sg211
I2
sg212
I0
sg213
Nsg214
I0
sg215
I3
sg216
F0
sg217
F-1
sg218
I0
sg219
F-1
sg220
I2
sS'name'
p1003
S'111'
p1004
stRp1005
(dp1006
g225
NsbF0.0019498965702950954
sg206
(g207
(dp1007
g209
Nsg210
I1
sg211
I2
sg212
I0
sg213
Nsg214
I0
sg215
I3
sg216
F0
sg217
F-1
sg218
I0
sg219
F-1
sg220
I2
sS'name'
p1008
S'190'
p1009
stRp1010
(dp1011
g225
NsbF0.0017532765632495284
sg206
(g207
(dp1012
g209
Nsg210
I1
sg211
I2
sg212
I0
sg213
Nsg214
I0
sg215
I3
sg216
F0
sg217
F-1
sg218
I0
sg219
F-1
sg220
I2
sS'name'
p1013
S'5'
stRp1014
(dp1015
g225
NsbF0.010952224023640156
sg206
(g207
(dp1016
g209
Nsg210
I1
sg211
I2
sg212
I0
sg213
Nsg214
I0
sg215
I3
sg216
F0
sg217
F-1
sg218
I0
sg219
F-1
sg220
I2
sS'name'
p1017
S'38'
p1018
stRp1019
(dp1020
g225
NsbF0.0087887654080986977
sg206
(g207
(dp1021
g209
Nsg210
I1
sg211
I2
sg212
I0
sg213
Nsg214
I0
sg215
I3
sg216
F0
sg217
F-1
sg218
I0
sg219
F-1
sg220
I2
sS'name'
p1022
S'171'
p1023
stRp1024
(dp1025
g225
NsbF-0.0011396126355975866
sg206
(g207
(dp1026
g209
Nsg210
I1
sg211
I2
sg212
I0
sg213
Nsg214
I0
sg215
I3
sg216
F0
sg217
F-1
sg218
I0
sg219
F-1
sg220
I2
sS'name'
p1027
S'39'
p1028
stRp1029
(dp1030
g225
NsbF0.004532739520072937
sg206
(g207
(dp1031
g209
Nsg210
I1
sg211
I2
sg212
I0
sg213
Nsg214
I0
sg215
I3
sg216
F0
sg217
F-1
sg218
I0
sg219
F-1
sg220
I2
sS'name'
p1032
S'40'
p1033
stRp1034
(dp1035
g225
NsbF0.03137129545211792
sg206
(g207
(dp1036
g209
Nsg210
I1
sg211
I2
sg212
I0
sg213
Nsg214
I0
sg215
I3
sg216
F0
sg217
F-1
sg218
I0
sg219
F-1
sg220
I2
sS'name'
p1037
S'11'
p1038
stRp1039
(dp1040
g225
NsbF0.013133995234966278
sg206
(g207
(dp1041
g209
Nsg210
I1
sg211
I2
sg212
I0
sg213
Nsg214
I0
sg215
I3
sg216
F0
sg217
F-1
sg218
I0
sg219
F-1
sg220
I2
sS'name'
p1042
S'41'
p1043
stRp1044
(dp1045
g225
NsbF0.0079121273010969162
sg206
(g207
(dp1046
g209
Nsg210
I1
sg211
I2
sg212
I0
sg213
Nsg214
I0
sg215
I3
sg216
F0
sg217
F-1
sg218
I0
sg219
F-1
sg220
I2
sS'name'
p1047
S'18'
p1048
stRp1049
(dp1050
g225
NsbF0.0096787922084331512
sg206
(g207
(dp1051
g209
Nsg210
I1
sg211
I2
sg212
I0
sg213
Nsg214
I0
sg215
I3
sg216
F0
sg217
F-1
sg218
I0
sg219
F-1
sg220
I2
sS'name'
p1052
S'112'
p1053
stRp1054
(dp1055
g225
NsbF0.005566383246332407
sg206
(g207
(dp1056
g209
Nsg210
I1
sg211
I2
sg212
I0
sg213
Nsg214
I0
sg215
I3
sg216
F0
sg217
F-1
sg218
I0
sg219
F-1
sg220
I2
sS'name'
p1057
S'42'
p1058
stRp1059
(dp1060
g225
NsbF0.01040080189704895
sg206
(g207
(dp1061
g209
Nsg210
I1
sg211
I2
sg212
I0
sg213
Nsg214
I0
sg215
I3
sg216
F0
sg217
F-1
sg218
I0
sg219
F-1
sg220
I2
sS'name'
p1062
S'37'
p1063
stRp1064
(dp1065
g225
NsbF0.0093068415299057961
sg206
(g207
(dp1066
g209
Nsg210
I1
sg211
I2
sg212
I0
sg213
Nsg214
I0
sg215
I3
sg216
F0
sg217
F-1
sg218
I0
sg219
F-1
sg220
I2
sS'name'
p1067
S'43'
p1068
stRp1069
(dp1070
g225
NsbF0.0091058192774653435
sg206
(g207
(dp1071
g209
Nsg210
I1
sg211
I2
sg212
I0
sg213
Nsg214
I0
sg215
I3
sg216
F0
sg217
F-1
sg218
I0
sg219
F-1
sg220
I2
sS'name'
p1072
S'44'
p1073
stRp1074
(dp1075
g225
NsbF0.0091080283746123314
sg206
(g207
(dp1076
g209
Nsg210
I1
sg211
I2
sg212
I0
sg213
Nsg214
I0
sg215
I3
sg216
F0
sg217
F-1
sg218
I0
sg219
F-1
sg220
I2
sS'name'
p1077
S'175'
p1078
stRp1079
(dp1080
g225
NsbF0.008986220695078373
sg206
(g207
(dp1081
g209
Nsg210
I1
sg211
I2
sg212
I0
sg213
Nsg214
I0
sg215
I3
sg216
F0
sg217
F-1
sg218
I0
sg219
F-1
sg220
I2
sS'name'
p1082
S'45'
p1083
stRp1084
(dp1085
g225
NsbF0.019625779241323471
sg206
(g207
(dp1086
g209
Nsg210
I1
sg211
I2
sg212
I0
sg213
Nsg214
I0
sg215
I3
sg216
F0
sg217
F-1
sg218
I0
sg219
F-1
sg220
I2
sS'name'
p1087
S'177'
p1088
stRp1089
(dp1090
g225
NsbF0.0032923107501119375
sg206
(g207
(dp1091
g209
Nsg210
I1
sg211
I2
sg212
I0
sg213
Nsg214
I0
sg215
I3
sg216
F0
sg217
F-1
sg218
I0
sg219
F-1
sg220
I2
sS'name'
p1092
S'46'
p1093
stRp1094
(dp1095
g225
NsbF0.0020283078774809837
sg206
(g207
(dp1096
g209
Nsg210
I1
sg211
I2
sg212
I0
sg213
Nsg214
I0
sg215
I3
sg216
F0
sg217
F-1
sg218
I0
sg219
F-1
sg220
I2
sS'name'
p1097
S'47'
p1098
stRp1099
(dp1100
g225
NsbF0.0023969241883605719
sg206
(g207
(dp1101
g209
Nsg210
I1
sg211
I2
sg212
I0
sg213
Nsg214
I0
sg215
I3
sg216
F0
sg217
F-1
sg218
I0
sg219
F-1
sg220
I2
sS'name'
p1102
S'94'
p1103
stRp1104
(dp1105
g225
NsbF0.0064934622496366501
sg206
(g207
(dp1106
g209
Nsg210
I1
sg211
I2
sg212
I0
sg213
Nsg214
I0
sg215
I3
sg216
F0
sg217
F-1
sg218
I0
sg219
F-1
sg220
I2
sS'name'
p1107
S'19'
p1108
stRp1109
(dp1110
g225
NsbF0.020139638334512711
sg206
(g207
(dp1111
g209
Nsg210
I1
sg211
I2
sg212
I0
sg213
Nsg214
I0
sg215
I3
sg216
F0
sg217
F-1
sg218
I0
sg219
F-1
sg220
I2
sS'name'
p1112
S'113'
p1113
stRp1114
(dp1115
g225
NsbF0.010523386299610138
sg206
(g207
(dp1116
g209
Nsg210
I1
sg211
I2
sg212
I0
sg213
Nsg214
I0
sg215
I3
sg216
F0
sg217
F-1
sg218
I0
sg219
F-1
sg220
I2
sS'name'
p1117
S'49'
p1118
stRp1119
(dp1120
g225
NsbF0.0094637321308255196
sg206
(g207
(dp1121
g209
Nsg210
I1
sg211
I2
sg212
I0
sg213
Nsg214
I0
sg215
I3
sg216
F0
sg217
F-1
sg218
I0
sg219
F-1
sg220
I2
sS'name'
p1122
S'198'
p1123
stRp1124
(dp1125
g225
NsbF0.0055965296924114227
sg206
(g207
(dp1126
g209
Nsg210
I1
sg211
I2
sg212
I0
sg213
Nsg214
I0
sg215
I3
sg216
F0
sg217
F-1
sg218
I0
sg219
F-1
sg220
I2
sS'name'
p1127
S'50'
p1128
stRp1129
(dp1130
g225
NsbF0.0061201872304081917
sg206
(g207
(dp1131
g209
Nsg210
I1
sg211
I2
sg212
I0
sg213
Nsg214
I0
sg215
I3
sg216
F0
sg217
F-1
sg218
I0
sg219
F-1
sg220
I2
sS'name'
p1132
S'51'
p1133
stRp1134
(dp1135
g225
NsbF0.010732561349868774
sg206
(g207
(dp1136
g209
Nsg210
I1
sg211
I2
sg212
I0
sg213
Nsg214
I0
sg215
I3
sg216
F0
sg217
F-1
sg218
I0
sg219
F-1
sg220
I2
sS'name'
p1137
S'52'
p1138
stRp1139
(dp1140
g225
NsbF0.01306502427905798
sg206
(g207
(dp1141
g209
Nsg210
I1
sg211
I2
sg212
I0
sg213
Nsg214
I0
sg215
I3
sg216
F0
sg217
F-1
sg218
I0
sg219
F-1
sg220
I2
sS'name'
p1142
S'53'
p1143
stRp1144
(dp1145
g225
NsbF0.0067453593946993351
sg206
(g207
(dp1146
g209
Nsg210
I1
sg211
I2
sg212
I0
sg213
Nsg214
I0
sg215
I3
sg216
F0
sg217
F-1
sg218
I0
sg219
F-1
sg220
I2
sS'name'
p1147
S'76'
p1148
stRp1149
(dp1150
g225
NsbF0.0042697405442595482
sg206
(g207
(dp1151
g209
Nsg210
I1
sg211
I2
sg212
I0
sg213
Nsg214
I0
sg215
I3
sg216
F0
sg217
F-1
sg218
I0
sg219
F-1
sg220
I2
sS'name'
p1152
S'71'
p1153
stRp1154
(dp1155
g225
NsbF0.0054016280919313431
sg206
(g207
(dp1156
g209
Nsg210
I1
sg211
I2
sg212
I0
sg213
Nsg214
I0
sg215
I3
sg216
F0
sg217
F-1
sg218
I0
sg219
F-1
sg220
I2
sS'name'
p1157
S'54'
p1158
stRp1159
(dp1160
g225
NsbF0.012624934315681458
sg206
(g207
(dp1161
g209
Nsg210
I1
sg211
I2
sg212
I0
sg213
Nsg214
I0
sg215
I3
sg216
F0
sg217
F-1
sg218
I0
sg219
F-1
sg220
I2
sS'name'
p1162
S'95'
p1163
stRp1164
(dp1165
g225
NsbF0.0090007903054356575
sg206
(g207
(dp1166
g209
Nsg210
I1
sg211
I2
sg212
I0
sg213
Nsg214
I0
sg215
I3
sg216
F0
sg217
F-1
sg218
I0
sg219
F-1
sg220
I2
sS'name'
p1167
S'184'
p1168
stRp1169
(dp1170
g225
NsbF-6.6285138018429279e-06
sg206
(g207
(dp1171
g209
Nsg210
I1
sg211
I2
sg212
I0
sg213
Nsg214
I0
sg215
I3
sg216
F0
sg217
F-1
sg218
I0
sg219
F-1
sg220
I2
sS'name'
p1172
S'55'
p1173
stRp1174
(dp1175
g225
NsbF0.013125292956829071
sg206
(g207
(dp1176
g209
Nsg210
I1
sg211
I2
sg212
I0
sg213
Nsg214
I0
sg215
I3
sg216
F0
sg217
F-1
sg218
I0
sg219
F-1
sg220
I2
sS'name'
p1177
S'199'
p1178
stRp1179
(dp1180
g225
NsbF0.0066625652834773064
sg206
(g207
(dp1181
g209
Nsg210
I1
sg211
I2
sg212
I0
sg213
Nsg214
I0
sg215
I3
sg216
F0
sg217
F-1
sg218
I0
sg219
F-1
sg220
I2
sS'name'
p1182
S'127'
p1183
stRp1184
(dp1185
g225
NsbF0.022503141313791275
sg206
(g207
(dp1186
g209
Nsg210
I1
sg211
I2
sg212
I0
sg213
Nsg214
I0
sg215
I3
sg216
F0
sg217
F-1
sg218
I0
sg219
F-1
sg220
I2
sS'name'
p1187
S'56'
p1188
stRp1189
(dp1190
g225
NsbF0.0070429891347885132
sg206
(g207
(dp1191
g209
Nsg210
I1
sg211
I2
sg212
I0
sg213
Nsg214
I0
sg215
I3
sg216
F0
sg217
F-1
sg218
I0
sg219
F-1
sg220
I2
sS'name'
p1192
S'57'
p1193
stRp1194
(dp1195
g225
NsbF0.0072215697728097439
sg206
(g207
(dp1196
g209
Nsg210
I1
sg211
I2
sg212
I0
sg213
Nsg214
I0
sg215
I3
sg216
F0
sg217
F-1
sg218
I0
sg219
F-1
sg220
I2
sS'name'
p1197
S'183'
p1198
stRp1199
(dp1200
g225
NsbF0.0020118867978453636
sg206
(g207
(dp1201
g209
Nsg210
I1
sg211
I2
sg212
I0
sg213
Nsg214
I0
sg215
I3
sg216
F0
sg217
F-1
sg218
I0
sg219
F-1
sg220
I2
sS'name'
p1202
S'58'
p1203
stRp1204
(dp1205
g225
NsbF0.0072334189899265766
sg206
(g207
(dp1206
g209
Nsg210
I1
sg211
I2
sg212
I0
sg213
Nsg214
I0
sg215
I3
sg216
F0
sg217
F-1
sg218
I0
sg219
F-1
sg220
I2
sS'name'
p1207
S'69'
p1208
stRp1209
(dp1210
g225
NsbF0.0094647202640771866
ss.