(lp1
F0.92069447040557861
aF0.95854365825653076
aF0.10003174841403961
aF0.22412697970867157
aF0.22533333301544189
aF0.30848017334938049
aF0.74202382564544678
aF0.73326188325881958
aF0.71371030807495117
aF0.17460028827190399
aF0.63461154699325562
aF0.22838094830513
aF0.62361901998519897
aF0.72180557250976562
aF0.92031139135360718
aF0.55875396728515625
aF0.36726191639900208
aF0.30901587009429932
aF0.33121824264526367
aF0.1893293708562851
aF0.59762299060821533
aF0.53225398063659668
aF0.093757934868335724
aF0.10250793397426605
aF0.13046032190322876
aF0.98873811960220337
aF0.80078965425491333
aF0.60782140493392944
aF0.80118650197982788
aF0.83741664886474609
aF0.085142858326435089
aF0.56819444894790649
aF0.0016666667070239782
aF0.67773807048797607
aF0.86539286375045776
aF0.37965476512908936
aF0.533896803855896
aF0.66443431377410889
aF0.36259019374847412
aF0.86563491821289062
aF0.86309128999710083
aF0.097662702202796936
aF0.01338095311075449
aF0.89927774667739868
aF0.68825000524520874
aF0.91203141212463379
aF0.18912301957607269
aF0.29079365730285645
aF0.40242856740951538
aF0.32441270351409912
aF0.90673017501831055
aF0.82917457818984985
aF0.29059126973152161
aF0.7108607292175293
aF0.52450394630432129
aF0.57857143878936768
aF0.14519047737121582
aF0.15526190400123596
aF0.80527597665786743
aF0.19466666877269745
aF0.23536327481269836
aF0.47558730840682983
aF0.53175795078277588
aF0.48024603724479675
aF0.12512302398681641
aF0.50484919548034668
aF0.86483728885650635
aF0.89224600791931152
aF0.093444444239139557
aF0.86323410272598267
aF0.26149207353591919
aF0.094274893403053284
aF0.97846752405166626
aF0.41331747174263
aF0.83932286500930786
aF0.98972618579864502
aF0.6131439208984375
aF0.88181746006011963
aF0.84254169464111328
aF0.078223057091236115
aF0.87267065048217773
aF0.40751588344573975
aF0.84178751707077026
aF0.84325796365737915
aF0.82263094186782837
aF0.46852990984916687
aF0.4303952157497406
aF0.26054760813713074
aF0.76180952787399292
aF0.8232262134552002
aF0.87598413228988647
aF0.91566663980484009
aF0.73671430349349976
aF0.1753571480512619
aF0.60317462682723999
aF0.19313095510005951
aF0.68748414516448975
aF0.58514684438705444
aF0.82115870714187622
aF0.36557143926620483
aF0.11799602955579758
aF0.72214436531066895
aF0.74357587099075317
aF0.95015478134155273
aF0.18838095664978027
aF0.72543251514434814
aF0.64954763650894165
aF0.97416484355926514
aF0.021238096058368683
aF0.82044047117233276
aF0.33882540464401245
aF0.088317461311817169
aF0.039825398474931717
aF0.83403569459915161
aF0.94913095235824585
aF0.71313709020614624
aF0.30963096022605896
aF0.22319841384887695
aF0.75175398588180542
aF0.89376193284988403
aF0.2627427875995636
aF0.22835683822631836
aF0.49144047498703003
aF0.31455519795417786
aF0.84256350994110107
aF0.85316270589828491
aF0.80901587009429932
aF0.097944445908069611
aF0.70498412847518921
aF0.7712976336479187
aF0.12666270136833191
aF0.76425576210021973
aF0.63956093788146973
aF0.87463891506195068
aF0.67071425914764404
aF0.022373016923666
aF0.2894761860370636
aF0.09903571754693985
aF0.44349601864814758
aF0.76939684152603149
aF0.801277756690979
aF0.40822497010231018
aF0.93726187944412231
aF0.62466269731521606
aF0.90403568744659424
aF0.70526981353759766
aF0.5587499737739563
aF0.66286110877990723
aF0.34964287281036377
aF0.32242026925086975
aF0.25575396418571472
aF0.75675398111343384
aF0.85409921407699585
aF0.14898413419723511
aF0.80000394582748413
aF0.19349999725818634
aF0.49581611156463623
aF0.16814826428890228
aF0.73553174734115601
aF0.83616667985916138
aF0.57586508989334106
aF0.13000784814357758
aF0.21545635163784027
aF0.19022655487060547
aF0.17473377287387848
aF0.73317855596542358
aF0.30784919857978821
aF0.76214683055877686
aF0.89013493061065674
aF0.25510713458061218
aF0.57103967666625977
aF0.32033729553222656
aF0.84577381610870361
aF0.57644444704055786
aF0.78712302446365356
aF0.9580039381980896
aF0.41105952858924866
aF0.66858333349227905
aF0.38778969645500183
aF0.1374007910490036
aF0.40159523487091064
aF0.90351986885070801
aF0.46261110901832581
aF0.62489283084869385
aF0.75980949401855469
aF0.79960030317306519
aF0.76893407106399536
aF0.78655123710632324
aF0.69806563854217529
aF0.59002774953842163
aF0.48068651556968689
aF0.78130155801773071
aF0.90350395441055298
aF0.44097951054573059
aF0.26278969645500183
aF0.16682936251163483
aF0.64144045114517212
aF0.65580159425735474
aF0.86631745100021362
aF0.44363492727279663
aF0.90507936477661133
aF0.41541990637779236
aF0.47094047069549561
aF0.98316669464111328
aF0.80567461252212524
aF0.17632900178432465
aF0.31536507606506348
aF0.18959127366542816
aF0.73468649387359619
aF0.36903175711631775
aF0.084496036171913147
aF0.64345633983612061
aF0.25044047832489014
aF0.27383333444595337
aF0.88739287853240967
aF0.484333336353302
aF0.69634741544723511
aF0.11696428805589676
aF0.80803966522216797
aF0.75411510467529297
aF0.049023810774087906
aF0.09278571605682373
aF0.89136111736297607
aF0.59256911277770996
aF0.20719841122627258
aF0.1067500039935112
aF0.28947222232818604
aF0.080833330750465393
aF0.90240871906280518
aF0.4689365029335022
aF0.053527779877185822
aF0.59753572940826416
aF0.87567460536956787
aF0.87083911895751953
aF0.75564467906951904
aF0.56730949878692627
aF0.51167064905166626
aF0.32157936692237854
aF0.26815477013587952
aF0.090960316359996796
aF0.90045744180679321
aF0.57029068470001221
aF0.63912302255630493
aF0.27649602293968201
aF0.52980053424835205
aF0.90277379751205444
aF0.44242948293685913
aF0.82434201240539551
aF0.5916944146156311
aF0.58985209465026855
aF0.78726983070373535
aF0.5192103385925293
aF0.12662553787231445
aF0.51929759979248047
aF0.71968650817871094
aF0.69567018747329712
aF0.075539685785770416
aF0.48271825909614563
aF0.89761370420455933
aF0.96458733081817627
aF0.7003333568572998
aF0.93519443273544312
aF0.49838095903396606
aF0.46886506676673889
aF0.12756384909152985
aF0.17214286327362061
aF0.43309524655342102
aF0.13005375862121582
aF0.95130950212478638
aF0.19154365360736847
aF0.70945096015930176
aF0.81233727931976318
aF0.11872222274541855
aF0.26577380299568176
aF0.91548812389373779
aF0.30397221446037292
aF0.87809520959854126
aF0.66783112287521362
aF0.69280952215194702
aF0.17065873742103577
aF0.49644443392753601
aF0.38501191139221191
aF0.82420635223388672
aF0.9302976131439209
aF0.76768255233764648
aF0.08150000125169754
aF0.7076190710067749
aF0.15173016488552094
aF0.43307539820671082
aF0.81791269779205322
aF0.59126585721969604
aF0.72892457246780396
aF0.67415964603424072
aF0.64484918117523193
aF0.80625200271606445
aF0.67718255519866943
aF0.42755845189094543
aF0.75887912511825562
aF0.11436507850885391
aF0.86423808336257935
aF0.85761505365371704
aF0.20522221922874451
aF0.49128255248069763
aF0.87592858076095581
aF0.97649997472763062
aF0.29337698221206665
aF0.56143254041671753
aF0.76814800500869751
aF0.09097619354724884
aF0.91936111450195312
aF0.45617857575416565
aF0.98409521579742432
aF0.81884127855300903
aF0.32734307646751404
aF0.81073808670043945
aF0.98777776956558228
aF0.39163890480995178
aF0.62009918689727783
aF0.64636111259460449
aF0.78970634937286377
aF0.82326585054397583
aF0.24973052740097046
aF0.016107143834233284
aF0.80031710863113403
aF0.53025001287460327
aF0.87868648767471313
aF0.71418648958206177
aF0.92284125089645386
aF0.31034126877784729
aF0.78799605369567871
aF0.22019840776920319
aF0.75394046306610107
aF0.56960678100585938
aF0.61559921503067017
aF0.078400798141956329
aF0.88553571701049805
aF0.75034523010253906
aF0.18875794112682343
aF0.64166271686553955
aF0.43511000275611877
aF0.59203171730041504
aF0.60042065382003784
aF0.89465242624282837
aF0.083642855286598206
aF0.74501192569732666
aF0.43380951881408691
aF0.98695236444473267
aF0.67480558156967163
aF0.068833336234092712
aF0.8315158486366272
aF0.087833337485790253
aF0.42721319198608398
aF0.15432937443256378
aF0.90428173542022705
aF0.55310314893722534
aF0.39580953121185303
aF0.1201746016740799
aF0.082000002264976501
aF0.71665871143341064
aF0.92373013496398926
aF0.49414286017417908
aF0.71743315458297729
aF0.45759811997413635
aF0.82388490438461304
aF0.62895238399505615
aF0.92052382230758667
aF0.19478967785835266
aF0.81603175401687622
aF0.31378570199012756
aF0.66963493824005127
aF0.87552779912948608
aF0.11867460608482361
aF0.73703569173812866
aF0.93549203872680664
aF0.74710345268249512
aF0.082040406763553619
aF0.84016269445419312
aF0.58570635318756104
aF0.056111112236976624
aF0.53661113977432251
aF0.038831170648336411
aF0.15051984786987305
aF0.65879762172698975
aF0.12413492053747177
aF0.074301585555076599
aF0.83700001239776611
aF0.10528174787759781
aF0.93208801746368408
aF0.63047617673873901
aF0.99133330583572388
aF0.7244642972946167
aF0.96936905384063721
aF0.55457538366317749
aF0.11818253993988037
aF0.69803571701049805
aF0.20129762589931488
aF0.062321428209543228
aF0.73722219467163086
aF0.70060712099075317
aF0.256175696849823
aF0.91847580671310425
aF0.9510158896446228
aF0.78428572416305542
aF0.95103573799133301
aF0.26113995909690857
aF0.90946030616760254
aF0.61256307363510132
aF0.66660714149475098
aF0.64328175783157349
aF0.081207789480686188
aF0.98199999332427979
aF0.97690474987030029
aF0.80814284086227417
aF0.023777777329087257
aF0.89727377891540527
aF0.52320235967636108
aF0.38891270756721497
aF0.88315385580062866
aF0.6843491792678833
aF0.94253629446029663
aF0.55349999666213989
aF0.30458009243011475
aF0.78142458200454712
aF0.60250002145767212
aF0.73057740926742554
aF0.87688887119293213
aF0.83971500396728516
aF0.84801191091537476
aF0.88233727216720581
aF0.96783334016799927
aF0.9236944317817688
aF0.57209521532058716
aF0.11275000125169754
aF0.60458731651306152
aF0.66114288568496704
aF0.74832141399383545
aF0.8392341136932373
aF0.15494841337203979
aF0.99355554580688477
aF0.90714287757873535
aF0.28240874409675598
aF0.85505950450897217
aF0.92042827606201172
aF0.38280555605888367
aF0.073674604296684265
aF0.95058333873748779
aF0.5417136549949646
aF0.51913672685623169
aF0.69841253757476807
aF0.15353968739509583
aF0.18319840729236603
aF0.082837305963039398
aF0.62032938003540039
aF0.04978787899017334
aF0.96655553579330444
aF0.80769443511962891
aF0.95133334398269653
aF0.8002585768699646
aF0.21867460012435913
aF0.72312301397323608
aF0.53125
aF0.61852777004241943
aF0.79663491249084473
aF0.79176187515258789
aF0.70331746339797974
aF0.14049206674098969
aF0.19607937335968018
aF0.078306637704372406
aF0.85319769382476807
aF0.42692857980728149
aF0.65301191806793213
aF0.66185319423675537
aF0.89061903953552246
aF0.54347223043441772
aF0.79680556058883667
aF0.80297619104385376
aF0.96058332920074463
aF0.48745238780975342
aF0.75155061483383179
aF0.21562698483467102
aF0.82510316371917725
aF0.63232934474945068
aF0.038440477102994919
aF0.60430192947387695
aF0.63094842433929443
aF0.12425793707370758
aF0.18299207091331482
aF0.12850794196128845
aF0.94458335638046265
aF0.34174206852912903
aF0.48591113090515137
aF0.81250399351119995
aF0.96886110305786133
aF0.89661902189254761
aF0.34768804907798767
aF0.93508332967758179
aF0.53689283132553101
aF0.87845635414123535
aF0.066835977137088776
aF0.22541689872741699
aF0.5496864914894104
aF0.1672142893075943
aF0.035952381789684296
aF0.26373809576034546
aF0.9584047794342041
aF0.74313491582870483
aF0.86538887023925781
aF0.15053175389766693
aF0.61556315422058105
aF0.89549601078033447
aF0.36866667866706848
aF0.77895909547805786
aF0.79261505603790283
aF0.32855555415153503
aF0.33678066730499268
aF0.9679444432258606
aF0.94219046831130981
aF0.68497443199157715
aF0.27457141876220703
aF0.023761903867125511
aF0.50211906433105469
aF0.017674604430794716
aF0.62645399570465088
aF0.38017064332962036
aF0.79167854785919189
aF0.15530556440353394
aF0.68712699413299561
aF0.29795634746551514
aF0.2888769805431366
aF0.42577776312828064
aF0.87223809957504272
aF0.49659126996994019
aF0.90621823072433472
aF0.20959416031837463
aF0.38636904954910278
aF0.8572232723236084
aF0.90895235538482666
aF0.40248233079910278
aF0.82952380180358887
aF0.17915903031826019
aF0.55411505699157715
aF0.60356861352920532
aF0.19787625968456268
aF0.74913638830184937
aF0.63241267204284668
aF0.058436509221792221
aF0.3274325430393219
aF0.78377377986907959
aF0.7426944375038147
aF0.47324207425117493
aF0.096214286983013153
aF0.46135640144348145
aF0.28601190447807312
aF0.14711111783981323
aF0.75946825742721558
aF0.58953320980072021
aF0.11370887607336044
aF0.80660170316696167
aF0.32292857766151428
aF0.65440040826797485
aF0.66207343339920044
aF0.28917858004570007
aF0.88735711574554443
aF0.11361110955476761
aF0.95056349039077759
aF0.75442063808441162
aF0.47994840145111084
aF0.52280157804489136
aF0.85176986455917358
aF0.68976187705993652
aF0.92738097906112671
aF0.28846031427383423
aF0.1149246022105217
aF0.64770358800888062
aF0.064027778804302216
aF0.41580554842948914
aF0.74131745100021362
aF0.23920238018035889
aF0.16765078902244568
aF0.13944514095783234
aF0.65417462587356567
aF0.76869839429855347
aF0.86910498142242432
aF0.30010715126991272
aF0.5396696925163269
aF0.84759521484375
aF0.92266666889190674
aF0.81674391031265259
aF0.18875794112682343
aF0.93546825647354126
aF0.9353412389755249
aF0.8967738151550293
aF0.55542856454849243
aF0.061988096684217453
aF0.15867099165916443
aF0.043845545500516891
aF0.3073849081993103
aF0.85965049266815186
aF0.87861108779907227
aF0.5818827748298645
aF0.18646825850009918
aF0.91800397634506226
aF0.86192858219146729
aF0.83198016881942749
aF0.84446823596954346
aF0.61865478754043579
aF0.086357146501541138
aF0.82909125089645386
aF0.1035173162817955
aF0.73083299398422241
aF0.83424997329711914
aF0.4987698495388031
aF0.88749605417251587
aF0.92449027299880981
aF0.8228650689125061
aF0.44301190972328186
aF0.78413093090057373
aF0.73575395345687866
aF0.41392460465431213
aF0.19736973941326141
aF0.79795235395431519
aF0.58749204874038696
aF0.8585476279258728
aF0.57299208641052246
aF0.76754963397979736
aF0.40071031451225281
aF0.7158055305480957
aF0.75066524744033813
aF0.42900794744491577
aF0.238591268658638
aF0.86557143926620483
aF0.041111111640930176
aF0.49625396728515625
aF0.60813093185424805
aF0.48908188939094543
aF0.7133452296257019
aF0.84810715913772583
aF0.39284005761146545
aF0.16778174042701721
aF0.7386547327041626
aF0.48480066657066345
aF0.30854365229606628
aF0.16111111640930176
aF0.28055953979492188
aF0.67675000429153442
aF0.91581350564956665
aF0.97221028804779053
aF0.19930194318294525
aF0.79942458868026733
aF0.8041691780090332
aF0.68237698078155518
aF0.63377130031585693
aF0.68697220087051392
aF0.099190481007099152
aF0.51837700605392456
aF0.94292855262756348
aF0.11849206686019897
aF0.58438491821289062
aF0.96060717105865479
aF0.15527381002902985
aF0.85530155897140503
aF0.62536108493804932
aF0.49831348657608032
aF0.60656744241714478
aF0.079450160264968872
aF0.1318412721157074
aF0.48098808526992798
aF0.26788586378097534
aF0.6035158634185791
aF0.14464682340621948
aF0.7309643030166626
aF0.93320631980895996
aF0.79008334875106812
aF0.763785719871521
aF0.90984123945236206
aF0.44520267844200134
aF0.2367788553237915
aF0.82049208879470825
aF0.53446429967880249
aF0.23800396919250488
aF0.94702380895614624
aF0.89034521579742432
aF0.16486385464668274
aF0.42198017239570618
aF0.16347222030162811
aF0.84065872430801392
aF0.93347799777984619
aF0.82005161046981812
aF0.89584922790527344
aF0.85594695806503296
aF0.66650092601776123
aF0.1083214282989502
aF0.7836071252822876
aF0.90211904048919678
aF0.89053571224212646
aF0.2093254029750824
aF0.83116668462753296
aF0.41402488946914673
aF0.77395635843276978
aF0.059466451406478882
aF0.73746031522750854
aF0.031285714358091354
aF0.072833336889743805
aF0.85817855596542358
aF0.30821827054023743
aF0.78040474653244019
aF0.94653970003128052
aF0.92684125900268555
aF0.14430159330368042
aF0.84587299823760986
aF0.97749203443527222
aF0.012180814519524574
aF0.83300793170928955
aF0.68988889455795288
aF0.91452378034591675
aF0.15983369946479797
aF0.87274998426437378
aF0.094829365611076355
aF0.75367462635040283
aF0.89236903190612793
aF0.5355793833732605
aF0.11157143115997314
aF0.087261907756328583
aF0.94614285230636597
aF0.083948411047458649
aF0.21509703993797302
aF0.81887298822402954
aF0.79483044147491455
aF0.66608083248138428
aF0.84286689758300781
aF0.92963492870330811
aF0.70502239465713501
aF0.55322617292404175
aF0.71307140588760376
aF0.84869551658630371
aF0.042916666716337204
aF0.84196501970291138
aF0.2317499965429306
aF0.91458332538604736
aF0.70530951023101807
aF0.82706999778747559
aF0.25606602430343628
aF0.20308730006217957
aF0.99500000476837158
aF0.33565476536750793
aF0.3446071445941925
aF0.2803809642791748
aF0.34280988574028015
aF0.07907143235206604
aF0.16159127652645111
aF0.73402887582778931
aF0.83411902189254761
aF0.83245879411697388
aF0.86309921741485596
aF0.24681746959686279
aF0.73426550626754761
aF0.77970635890960693
aF0.84292066097259521
aF0.89844316244125366
aF0.28945177793502808
aF0.053973060101270676
aF0.76697224378585815
aF0.6413949728012085
aF0.11003030091524124
aF0.81248772144317627
aF0.78933334350585938
aF0.27088889479637146
aF0.76437300443649292
aF0.17840872704982758
aF0.18816666305065155
aF0.66972619295120239
aF0.19091667234897614
aF0.62403208017349243
aF0.96114283800125122
aF0.59970235824584961
aF0.70155954360961914
aF0.17223015427589417
aF0.18280951678752899
aF0.52221286296844482
aF0.50879061222076416
aF0.96213889122009277
aF0.60895240306854248
aF0.35023772716522217
aF0.94158333539962769
aF0.12931565940380096
aF0.36946427822113037
aF0.40946030616760254
aF0.28028571605682373
aF0.58363491296768188
aF0.73342061042785645
aF0.38613492250442505
aF0.25593650341033936
aF0.18771031498908997
aF0.96690475940704346
aF0.76007390022277832
aF0.97699999809265137
aF0.33996030688285828
aF0.76563096046447754
aF0.099821425974369049
aF0.50779759883880615
aF0.62892460823059082
aF0.073492065072059631
aF0.19491666555404663
aF0.66447025537490845
aF0.80887299776077271
aF0.90661907196044922
aF0.2362658679485321
aF0.1549166738986969
aF0.45938816666603088
aF0.75620633363723755
aF0.70923054218292236
aF0.58058333396911621
aF0.86627382040023804
aF0.891865074634552
aF0.364449143409729
aF0.3576417863368988
aF0.28494840860366821
aF0.7841031551361084
aF0.53788095712661743
aF0.89924997091293335
aF0.85162699222564697
aF0.77226322889328003
aF0.30255809426307678
aF0.94607144594192505
aF0.18781349062919617
aF0.78918904066085815
aF0.065249279141426086
aF0.43094119429588318
aF0.91539680957794189
aF0.38520634174346924
aF0.81441664695739746
aF0.8528333306312561
aF0.75408655405044556
aF0.23944841325283051
aF0.08279670774936676
aF0.88864684104919434
aF0.61399281024932861
aF0.11913888901472092
aF0.57075768709182739
aF0.63708513975143433
aF0.81765872240066528
aF0.88061541318893433
aF0.62582540512084961
aF0.42632141709327698
aF0.54028177261352539
aF0.17915476858615875
aF0.69509124755859375
aF0.85102379322052002
aF0.041523721069097519
aF0.16100397706031799
aF0.076035715639591217
aF0.56431132555007935
aF0.33693253993988037
aF0.72361904382705688
aF0.2963888943195343
aF0.85455119609832764
aF0.49209919571876526
aF0.70418649911880493
aF0.1235303059220314
aF0.21168398857116699
aF0.31005159020423889
aF0.56134307384490967
aF0.24235136806964874
aF0.32400792837142944
aF0.26248052716255188
aF0.91829365491867065
aF0.93321824073791504
aF0.33519443869590759
aF0.38047617673873901
aF0.14190354943275452
aF0.95285713672637939
aF0.27373412251472473
aF0.71700000762939453
aF0.16485714912414551
aF0.51334124803543091
aF0.28021898865699768
aF0.31744444370269775
aF0.1530158668756485
aF0.24780799448490143
aF0.83038491010665894
aF0.32063889503479004
aF0.97404760122299194
aF0.66343504190444946
aF0.28355664014816284
aF0.3608214259147644
aF0.90784525871276855
aF0.75447219610214233
aF0.16208332777023315
aF0.87108761072158813
aF0.70038890838623047
aF0.19168651103973389
aF0.83329325914382935
aF0.72323411703109741
aF0.1052619069814682
aF0.76081746816635132
aF0.36427778005599976
aF0.20219841599464417
aF0.73540478944778442
aF0.13292063772678375
aF0.7625238299369812
aF0.41296824812889099
aF0.34993255138397217
aF0.42977380752563477
aF0.24732936918735504
aF0.84085571765899658
aF0.9345238208770752
aF0.73251831531524658
aF0.97955554723739624
aF0.544269859790802
aF0.47478282451629639
aF0.97261905670166016
aF0.70012056827545166
aF0.47213491797447205
aF0.67785787582397461
aF0.46065080165863037
aF0.71212172508239746
aF0.10375396907329559
aF0.52631747722625732
aF0.79549604654312134
aF0.81487607955932617
aF0.6607658863067627
aF0.57991653680801392
aF0.10836508125066757
aF0.23645634949207306
aF0.11914286017417908
aF0.2849794328212738
aF0.61194843053817749
aF0.97809523344039917
aF0.39462554454803467
aF0.27229365706443787
aF0.2520872950553894
aF0.9172857403755188
aF0.72289985418319702
aF0.90451192855834961
aF0.33417460322380066
aF0.86490261554718018
aF0.67945635318756104
aF0.46303519606590271
aF0.9092261791229248
aF0.41842460632324219
aF0.80497223138809204
aF0.79123014211654663
aF0.81884920597076416
aF0.093022003769874573
aF0.84477490186691284
aF0.036761905997991562
aF0.90655553340911865
aF0.31081140041351318
aF0.95866668224334717
aF0.38401985168457031
aF0.78321391344070435
aF0.81497621536254883
aF0.15495851635932922
aF0.36328572034835815
aF0.45109632611274719
aF0.67242062091827393
aF0.47883731126785278
aF0.70586115121841431
aF0.97738093137741089
aF0.54692858457565308
aF0.27813094854354858
aF0.98326987028121948
aF0.94712698459625244
aF0.59744441509246826
aF0.14459523558616638
aF0.94788891077041626
aF0.46137553453445435
aF0.28462952375411987
aF0.968833327293396
aF0.8493228554725647
aF0.78816884756088257
aF0.39332538843154907
aF0.15438094735145569
aF0.14746429026126862
aF0.63524603843688965
aF0.87667858600616455
aF0.59265875816345215
aF0.59171426296234131
aF0.53167605400085449
aF0.074194446206092834
aF0.89385712146759033
aF0.70703572034835815
aF0.90164071321487427
aF0.98203897476196289
aF0.68034523725509644
aF0.9118809700012207
aF0.34353175759315491
aF0.44620239734649658
aF0.82811111211776733
aF0.44067785143852234
aF0.055750001221895218
aF0.072309523820877075
aF0.68583440780639648
aF0.77228426933288574
aF0.41270238161087036
aF0.25563493371009827
aF0.10317857563495636
aF0.85797220468521118
aF0.35000795125961304
aF0.21039927005767822
aF0.2237103134393692
aF0.11708272248506546
aF0.60563886165618896
aF0.95400792360305786
aF0.64469444751739502
aF0.34698015451431274
aF0.090599209070205688
aF0.37076225876808167
aF0.75033330917358398
aF0.073686867952346802
aF0.88968652486801147
aF0.80684524774551392
aF0.19416667520999908
aF0.77357298135757446
aF0.74677777290344238
aF0.82423990964889526
aF0.6992499828338623
aF0.40566882491111755
aF0.2504960298538208
aF0.91999602317810059
aF0.41658729314804077
aF0.5761139988899231
aF0.14300000667572021
aF0.12235064804553986
aF0.45105159282684326
aF0.058964285999536514
aF0.18516269326210022
aF0.84762698411941528
aF0.59771430492401123
aF0.038571428507566452
aF0.8221626877784729
aF0.78490078449249268
aF0.23570238053798676
aF0.24148015677928925
aF0.30092459917068481
aF0.23465079069137573
aF0.43973687291145325
aF0.90700989961624146
aF0.1174408420920372
aF0.84194165468215942
aF0.63589286804199219
aF0.73710715770721436
aF0.59725791215896606
aF0.57657325267791748
aF0.92955756187438965
aF0.40517964959144592
aF0.16217491030693054
aF0.42594444751739502
aF0.87611109018325806
aF0.5503690242767334
aF0.65321826934814453
aF0.4794563353061676
aF0.21256746351718903
aF0.11183333396911621
aF0.96899998188018799
aF0.15123867988586426
aF0.71089684963226318
aF0.50129759311676025
aF0.87620633840560913
aF0.85429364442825317
aF0.22053608298301697
aF0.77433335781097412
aF0.37959125638008118
aF0.80030161142349243
aF0.7391389012336731
aF0.89746826887130737
aF0.48940536379814148
aF0.05492604523897171
aF0.80855953693389893
aF0.14690837264060974
aF0.47552776336669922
aF0.1166529580950737
aF0.223523810505867
aF0.63753175735473633
aF0.70332539081573486
aF0.80150794982910156
aF0.88487303256988525
aF0.32303175330162048
aF0.66605877876281738
aF0.38690477609634399
aF0.71918255090713501
aF0.50349205732345581
aF0.25012734532356262
aF0.17051190137863159
aF0.75970488786697388
aF0.40082937479019165
aF0.40830555558204651
aF0.89669841527938843
aF0.78787118196487427
aF0.070702381432056427
aF0.80709922313690186
aF0.60654759407043457
aF0.24716666340827942
aF0.94464284181594849
aF0.87660712003707886
aF0.95332539081573486
aF0.11206348985433578
aF0.27625793218612671
aF0.21906349062919617
aF0.07254365086555481
aF0.89613491296768188
aF0.8365476131439209
aF0.47949060797691345
aF0.58643251657485962
aF0.96376585960388184
aF0.85352379083633423
aF0.88431423902511597
aF0.41038888692855835
aF0.7391389012336731
aF0.71455615758895874
aF0.78527021408081055
aF0.52638095617294312
aF0.56374204158782959
aF0.17192460596561432
aF0.24071826040744781
aF0.94419443607330322
aF0.77905160188674927
aF0.72429764270782471
aF0.11627669632434845
aF0.86952775716781616
aF0.39108332991600037
aF0.88973414897918701
aF0.52253574132919312
aF0.8553769588470459
aF0.22790388762950897
aF0.91886109113693237
aF0.86532938480377197
aF0.93147224187850952
aF0.66870635747909546
aF0.9595833420753479
aF0.84423810243606567
aF0.39989486336708069
aF0.87371426820755005
aF0.77548015117645264
aF0.67147618532180786
aF0.35564681887626648
aF0.82138097286224365
aF0.80330979824066162
aF0.31623014807701111
aF0.20504762232303619
aF0.1392606794834137
aF0.54059922695159912
aF0.62870633602142334
aF0.51818108558654785
aF0.1469624787569046
aF0.35800397396087646
aF0.67500793933868408
aF0.93249207735061646
aF0.20158334076404572
aF0.65959471464157104
aF0.95174998044967651
aF0.49586904048919678
aF0.38857144117355347
aF0.8694603443145752
aF0.95888888835906982
aF0.78084522485733032
aF0.92573946714401245
aF0.36202776432037354
aF0.085222221910953522
aF0.85010319948196411
aF0.14588889479637146
aF0.58794844150543213
aF0.14236193895339966
aF0.81128966808319092
aF0.4775238037109375
aF0.89334923028945923
aF0.7784455418586731
aF0.6372261643409729
aF0.050468254834413528
aF0.94144046306610107
aF0.32915079593658447
aF0.80459123849868774
aF0.72666668891906738
aF0.72474467754364014
aF0.76471430063247681
aF0.96022617816925049
aF0.7946745753288269
aF0.82242459058761597
aF0.61474388837814331
aF0.40066918730735779
aF0.88615596294403076
aF0.10393650829792023
aF0.43651586771011353
aF0.29041269421577454
aF0.36302778124809265
aF0.89086109399795532
aF0.16012923419475555
aF0.029418831691145897
aF0.74195635318756104
aF0.29801839590072632
aF0.54713982343673706
aF0.057309523224830627
aF0.17061905562877655
aF0.49621284008026123
aF0.94268256425857544
aF0.28498014807701111
aF0.77390474081039429
aF0.90799206495285034
aF0.13330952823162079
aF0.906333327293396
aF0.10813095420598984
aF0.6622738242149353
aF0.65168255567550659
aF0.83001589775085449
aF0.79032140970230103
aF0.27518650889396667
aF0.14926190674304962
aF0.59388214349746704
aF0.92177778482437134
aF0.23371031880378723
aF0.80360549688339233
aF0.31082165241241455
aF0.021666666492819786
aF0.30037698149681091
aF0.35879766941070557
aF0.3857395350933075
aF0.94215476512908936
aF0.7243809700012207
aF0.84949600696563721
aF0.58513092994689941
aF0.83522909879684448
aF0.12728174030780792
aF0.88805156946182251
aF0.80434340238571167
aF0.88332939147949219
aF0.91014283895492554
aF0.55312299728393555
aF0.10438492149114609
aF0.39544534683227539
aF0.57613492012023926
aF0.90669447183609009
aF0.068369045853614807
aF0.1168055534362793
aF0.92851191759109497
aF0.58081954717636108
aF0.81944555044174194
aF0.8819960355758667
aF0.80136436223983765
aF0.34695237874984741
aF0.71693438291549683
aF0.8406904935836792
aF0.34430953860282898
aF0.91086113452911377
aF0.84545916318893433
aF0.21775369346141815
aF0.79845237731933594
aF0.39737698435783386
aF0.82900702953338623
aF0.22515873610973358
aF0.12417460232973099
aF0.2967301607131958
aF0.17448015511035919
aF0.95346426963806152
aF0.89096826314926147
aF0.095698416233062744
aF0.67228031158447266
aF0.12531349062919617
aF0.70119047164916992
aF0.93632936477661133
aF0.79290080070495605
aF0.55566364526748657
aF0.60194844007492065
aF0.17182937264442444
aF0.82576584815979004
aF0.93116664886474609
aF0.74891668558120728
aF0.95124208927154541
aF0.88647615909576416
aF0.7074967622756958
aF0.74869841337203979
aF0.6287420392036438
aF0.93358731269836426
aF0.070936508476734161
aF0.69208544492721558
aF0.41565224528312683
aF0.66001588106155396
aF0.62794047594070435
aF0.81234526634216309
aF0.13159920275211334
aF0.69766664505004883
aF0.74825000762939453
aF0.94603139162063599
aF0.42379364371299744
aF0.83744049072265625
aF0.23106350004673004
aF0.12747618556022644
aF0.34916666150093079
aF0.055869046598672867
aF0.45006746053695679
aF0.18861782550811768
aF0.77284646034240723
aF0.19089682400226593
aF0.38958242535591125
aF0.92354762554168701
aF0.030190477147698402
aF0.48618254065513611
aF0.28721427917480469
aF0.85718792676925659
aF0.57575505971908569
aF0.14681349694728851
aF0.51130950450897217
aF0.8924444317817688
aF0.28664284944534302
aF0.21159523725509644
aF0.37999206781387329
aF0.26803967356681824
aF0.54203569889068604
aF0.72892856597900391
aF0.22219480574131012
aF0.31121826171875
aF0.61231350898742676
aF0.89461112022399902
aF0.86527669429779053
aF0.62679219245910645
aF0.48048412799835205
aF0.065539680421352386
aF0.95709526538848877
aF0.68997222185134888
aF0.28452381491661072
aF0.070500001311302185
aF0.62177777290344238
aF0.81562155485153198
aF0.81308335065841675
aF0.68003970384597778
aF0.55446034669876099
aF0.90573811531066895
aF0.78725790977478027
aF0.49458730220794678
aF0.65729182958602905
aF0.98457145690917969
aF0.80383729934692383
aF0.17519047856330872
aF0.74720239639282227
aF0.21071825921535492
aF0.90399998426437378
aF0.026047619059681892
aF0.86052149534225464
aF0.12409884482622147
aF0.886738121509552
aF0.49610713124275208
aF0.39733698964118958
aF0.11884921044111252
aF0.45481023192405701
aF0.85389178991317749
aF0.63489609956741333
aF0.73271644115447998
aF0.13662843406200409
aF0.19396248459815979
aF0.70260715484619141
aF0.42192316055297852
aF0.87411671876907349
aF0.9229285717010498
aF0.13826189935207367
aF0.86328572034835815
aF0.91681963205337524
aF0.8965873122215271
aF0.013749999925494194
aF0.80558979511260986
aF0.2211855947971344
aF0.10809127241373062
aF0.52090167999267578
aF0.52642858028411865
aF0.54021823406219482
aF0.84515476226806641
aF0.23268254101276398
aF0.16314610838890076
aF0.61800819635391235
aF0.49016270041465759
aF0.80605161190032959
aF0.21053144335746765
aF0.64407938718795776
aF0.97206348180770874
aF0.2749880850315094
aF0.42657935619354248
aF0.63876050710678101
aF0.50888347625732422
aF0.13849206268787384
aF0.95379763841629028
aF0.74849605560302734
aF0.89441072940826416
aF0.91805952787399292
aF0.38178572058677673
aF0.21023015677928925
aF0.75987696647644043
aF0.11115476489067078
aF0.18593254685401917
aF0.60371428728103638
aF0.94374203681945801
aF0.46463096141815186
aF0.51916956901550293
aF0.81431496143341064
aF0.80717462301254272
aF0.095373019576072693
aF0.55902379751205444
aF0.30736905336380005
aF0.79502779245376587
aF0.76015478372573853
aF0.17496031522750854
aF0.64593255519866943
aF0.88403570652008057
aF0.14543651044368744
aF0.88217461109161377
aF0.10125000029802322
aF0.054476190358400345
aF0.22472618520259857
aF0.54400396347045898
aF0.53880554437637329
aF0.18411111831665039
aF0.5705714225769043
aF0.98546034097671509
aF0.18831969797611237
aF0.23569047451019287
aF0.97925001382827759
aF0.28820887207984924
aF0.58958208560943604
aF0.035500001162290573
aF0.08848901093006134
aF0.84528392553329468
aF0.53103172779083252
aF0.40183043479919434
aF0.74956566095352173
aF0.83109128475189209
aF0.43899601697921753
aF0.24999207258224487
aF0.2305714339017868
aF0.50547027587890625
aF0.71842062473297119
aF0.37242063879966736
aF0.6682698130607605
aF0.023952381685376167
aF0.12954762578010559
aF0.57638490200042725
aF0.82063490152359009
aF0.58170634508132935
aF0.95836907625198364
aF0.78964829444885254
aF0.92863494157791138
aF0.69003969430923462
aF0.44465872645378113
aF0.88159525394439697
aF0.97371429204940796
aF0.59953969717025757
aF0.37765872478485107
aF0.67752379179000854
aF0.30114683508872986
aF0.50305700302124023
aF0.69475001096725464
aF0.27619120478630066
aF0.23251587152481079
aF0.092277780175209045
aF0.74401986598968506
aF0.34884271025657654
aF0.39163708686828613
aF0.40911903977394104
aF0.90634918212890625
aF0.86705160140991211
aF0.011388888582587242
aF0.48821428418159485
aF0.87430554628372192
aF0.13536110520362854
aF0.78171426057815552
aF0.41776087880134583
aF0.51317322254180908
aF0.11640620976686478
aF0.87788093090057373
aF0.21524207293987274
aF0.42514899373054504
aF0.95488095283508301
aF0.63545238971710205
aF0.8908730149269104
aF0.85275793075561523
aF0.7380753755569458
aF0.76539283990859985
aF0.75476586818695068
aF0.81548017263412476
aF0.041650794446468353
aF0.12001190334558487
aF0.49694842100143433
aF0.2022460401058197
aF0.53637301921844482
aF0.054164141416549683
aF0.44156745076179504
aF0.36728572845458984
aF0.8888055682182312
aF0.60493254661560059
aF0.82957732677459717
aF0.66085314750671387
aF0.88930028676986694
aF0.67747759819030762
aF0.44269046187400818
aF0.54007935523986816
aF0.34492459893226624
aF0.99424999952316284
aF0.067869052290916443
aF0.96527779102325439
aF0.70310640335083008
aF0.9204484224319458
aF0.93714612722396851
aF0.31499603390693665
aF0.95446425676345825
aF0.15080952644348145
aF0.69718253612518311
aF0.90494048595428467
aF0.89002382755279541
aF0.72730952501296997
aF0.89859521389007568
aF0.30148810148239136
aF0.30188095569610596
aF0.85814285278320312
aF0.88212698698043823
aF0.15529762208461761
aF0.041456349194049835
aF0.21717856824398041
aF0.25051191449165344
aF0.6303412914276123
aF0.65317857265472412
aF0.26321429014205933
aF0.033492065966129303
aF0.099432177841663361
aF0.27917855978012085
aF0.12706349790096283
aF0.36542460322380066
aF0.28679618239402771
aF0.31051802635192871
aF0.29503175616264343
aF0.81300002336502075
aF0.88451188802719116
aF0.79277777671813965
aF0.19303968548774719
aF0.75365078449249268
aF0.57515478134155273
aF0.64246827363967896
aF0.30001586675643921
aF0.96925002336502075
aF0.90269047021865845
aF0.76965188980102539
aF0.37883332371711731
aF0.46443650126457214
aF0.89219838380813599
aF0.2804296612739563
aF0.89154762029647827
aF0.94160318374633789
aF0.76266664266586304
aF0.84340077638626099
aF0.45621031522750854
aF0.41269445419311523
aF0.5047420859336853
aF0.073445886373519897
aF0.861380934715271
aF0.87206351757049561
aF0.45200756192207336
aF0.17659524083137512
aF0.19871032238006592
aF0.87869441509246826
aF0.63427382707595825
aF0.82768255472183228
aF0.64529532194137573
aF0.35632142424583435
aF0.64976370334625244
aF0.57989680767059326
aF0.61284124851226807
aF0.47219842672348022
aF0.7364463210105896
aF0.64286905527114868
aF0.58977776765823364
aF0.85055553913116455
aF0.78012299537658691
aF0.85553967952728271
aF0.88629090785980225
aF0.12471428513526917
aF0.80971425771713257
aF0.27894842624664307
aF0.7860754132270813
aF0.80518531799316406
aF0.92713093757629395
aF0.88867461681365967
aF0.42626982927322388
aF0.097905486822128296
aF0.76782143115997314
aF0.61707568168640137
aF0.38725793361663818
aF0.92946028709411621
aF0.62403970956802368
aF0.85828691720962524
aF0.83758044242858887
aF0.98199999332427979
aF0.83488887548446655
aF0.40791666507720947
aF0.97784090042114258
aF0.82614284753799438
aF0.85663491487503052
aF0.64968287944793701
aF0.28604364395141602
aF0.7718048095703125
aF0.72149419784545898
aF0.63824206590652466
aF0.26899206638336182
aF0.2659246027469635
aF0.74736142158508301
aF0.71082937717437744
aF0.10448016226291656
aF0.58420240879058838
aF0.23162698745727539
aF0.21891270577907562
aF0.34596428275108337
aF0.33792170882225037
aF0.047142859548330307
aF0.14132936298847198
aF0.15625794231891632
aF0.19470947980880737
aF0.13699603080749512
aF0.88529366254806519
aF0.68428140878677368
aF0.11597222089767456
aF0.84705555438995361
aF0.128575399518013
aF0.23937699198722839
aF0.56149554252624512
aF0.7839999794960022
aF0.71332144737243652
aF0.83678966760635376
aF0.22490079700946808
aF0.66279363632202148
aF0.79702383279800415
aF0.50611907243728638
aF0.90879762172698975
aF0.012158730998635292
aF0.70568132400512695
aF0.60930156707763672
aF0.84658551216125488
aF0.17878571152687073
aF0.81599205732345581
aF0.66634923219680786
aF0.82453173398971558
aF0.27073413133621216
aF0.89920240640640259
aF0.53908336162567139
aF0.023678572848439217
aF0.38318651914596558
aF0.81710314750671387
aF0.17305952310562134
aF0.85783332586288452
aF0.22854761779308319
aF0.91934919357299805
aF0.338396817445755
aF0.60990476608276367
aF0.32943254709243774
aF0.21757936477661133
aF0.45866268873214722
aF0.96180558204650879
aF0.88980156183242798
aF0.677101731300354
aF0.9034801721572876
aF0.39876985549926758
aF0.90795361995697021
aF0.40943253040313721
aF0.53084129095077515
aF0.18296428024768829
aF0.64770632982254028
aF0.71992462873458862
aF0.33742460608482361
aF0.27382540702819824
aF0.29685822129249573
aF0.72663891315460205
aF0.57311111688613892
aF0.26988887786865234
aF0.52341663837432861
aF0.84675502777099609
aF0.67530518770217896
aF0.28009524941444397
aF0.74583333730697632
aF0.13191269338130951
aF0.5964047908782959
aF0.98333334922790527
aF0.34020239114761353
aF0.27775001525878906
aF0.96399998664855957
aF0.50830954313278198
aF0.75628787279129028
aF0.73978966474533081
aF0.71567171812057495
aF0.7837257981300354
aF0.75080037117004395
aF0.96089684963226318
aF0.23472872376441956
aF0.8791428804397583
aF0.075777776539325714
aF0.43136903643608093
aF0.10596103966236115
aF0.63812083005905151
aF0.4119429886341095
aF0.42033946514129639
aF0.93252599239349365
aF0.82393431663513184
aF0.68726831674575806
aF0.19528572261333466
aF0.17928174138069153
aF0.093896828591823578
aF0.12156385183334351
aF0.26298809051513672
aF0.7868809700012207
aF0.73523521423339844
aF0.96063095331192017
aF0.34003570675849915
aF0.22473809123039246
aF0.90242063999176025
aF0.43796429038047791
aF0.87327378988265991
aF0.22521306574344635
aF0.10004279017448425
aF0.90195238590240479
aF0.4157431423664093
aF0.89726585149765015
aF0.22284920513629913
aF0.36743649840354919
aF0.68079763650894165
aF0.91796427965164185
aF0.3150317370891571
aF0.71268254518508911
aF0.38856348395347595
aF0.32898810505867004
aF0.99990000000000001
aF0.30711111426353455
aF0.078619047999382019
aF0.7399260401725769
aF0.44783332943916321
aF0.94205951690673828
aF0.70092189311981201
aF0.035968255251646042
aF0.79364466667175293
aF0.5318293571472168
aF0.68645596504211426
aF0.49137300252914429
aF0.40644106268882751
aF0.51564288139343262
aF0.77754545211791992
aF0.94275397062301636
aF0.6849365234375
aF0.70285713672637939
aF0.32800397276878357
aF0.91456347703933716
aF0.6356692910194397
aF0.5269007682800293
aF0.086325399577617645
aF0.501365065574646
aF0.21099291741847992
aF0.69721353054046631
aF0.56708580255508423
aF0.21831746399402618
aF0.28751984238624573
aF0.45208874344825745
aF0.81449604034423828
aF0.37909522652626038
aF0.62938964366912842
aF0.70924603939056396
aF0.24696825444698334
aF0.26343509554862976
aF0.30686905980110168
aF0.85120636224746704
aF0.19959235191345215
aF0.78011906147003174
aF0.64705157279968262
aF0.73997616767883301
aF0.6477121114730835
aF0.1847301572561264
aF0.358734130859375
aF0.89767062664031982
aF0.345854252576828
aF0.64993762969970703
aF0.0067821070551872253
aF0.29753175377845764
aF0.39041668176651001
aF0.18008333444595337
aF0.87044048309326172
aF0.4312063455581665
aF0.71384668350219727
aF0.45665186643600464
aF0.67038583755493164
aF0.82390874624252319
aF0.51832938194274902
aF0.36192062497138977
aF0.46109920740127563
aF0.31652197241783142
aF0.72045636177062988
aF0.75575792789459229
aF0.20451191067695618
aF0.72642135620117188
aF0.98376190662384033
aF0.79980158805847168
aF0.79822772741317749
aF0.069428570568561554
aF0.40996429324150085
aF0.83204364776611328
aF0.1246587336063385
aF0.736297607421875
aF0.33315476775169373
aF0.58080554008483887
aF0.008550724945962429
aF0.85940295457839966
aF0.54080158472061157
aF0.57082140445709229
aF0.58640944957733154
aF0.0372023805975914
aF0.48398411273956299
aF0.2160923033952713
aF0.83612698316574097
aF0.65810316801071167
aF0.22553572058677673
aF0.78582143783569336
aF0.48038887977600098
aF0.30084919929504395
aF0.49743252992630005
aF0.69190764427185059
aF0.074460320174694061
aF0.74621826410293579
aF0.3576347827911377
aF0.73257142305374146
aF0.93582826852798462
aF0.18675397336483002
aF0.83609920740127563
aF0.79473012685775757
aF0.56617856025695801
aF0.28127777576446533
aF0.86661112308502197
aF0.23605628311634064
aF0.077107146382331848
aF0.048333335667848587
aF0.16898809373378754
aF0.43244031071662903
aF0.30827382206916809
aF0.7016150951385498
aF0.067888885736465454
aF0.78382939100265503
aF0.092182539403438568
aF0.95345562696456909
aF0.76182937622070312
aF0.13535317778587341
aF0.67850792407989502
aF0.87168252468109131
aF0.27460715174674988
aF0.45728173851966858
aF0.57217854261398315
aF0.069916665554046631
aF0.60193794965744019
aF0.96330553293228149
aF0.26151478290557861
aF0.69055557250976562
aF0.8732222318649292
aF0.28787699341773987
aF0.92080086469650269
aF0.46706348657608032
aF0.76619446277618408
aF0.14931349456310272
aF0.077293649315834045
aF0.76013493537902832
aF0.38712805509567261
aF0.15346825122833252
aF0.53473412990570068
aF0.1447896808385849
aF0.04997619241476059
aF0.53782933950424194
aF0.203765869140625
aF0.10420346260070801
aF0.10970238596200943
aF0.96357542276382446
aF0.40861508250236511
aF0.57394868135452271
aF0.44795635342597961
aF0.26485896110534668
aF0.091571427881717682
aF0.7916983962059021
aF0.18857936561107635
aF0.09251190721988678
aF0.55849605798721313
aF0.89801192283630371
aF0.1968214362859726
aF0.95179760456085205
aF0.93344444036483765
aF0.64618253707885742
aF0.54571825265884399
aF0.28564682602882385
aF0.90630555152893066
aF0.13663095235824585
aF0.53098523616790771
aF0.8554682731628418
aF0.081007324159145355
aF0.38511905074119568
aF0.37871915102005005
aF0.51391428709030151
aF0.3105158805847168
aF0.8057103157043457
aF0.37858334183692932
aF0.37997618317604065
aF0.67773014307022095
aF0.3337763249874115
aF0.77442854642868042
aF0.84112119674682617
aF0.72699207067489624
aF0.21717064082622528
aF0.60677593946456909
aF0.84321826696395874
aF0.5830119252204895
aF0.95500397682189941
aF0.96585714817047119
aF0.38899999856948853
aF0.159226194024086
aF0.96030557155609131
aF0.89571624994277954
aF0.80017459392547607
aF0.23691666126251221
aF0.62276983261108398
aF0.35661506652832031
aF0.70379763841629028
aF0.27746430039405823
aF0.18053571879863739
aF0.31300395727157593
aF0.58809524774551392
aF0.7342301607131958
aF0.17794841527938843
aF0.70082938671112061
aF0.034261904656887054
aF0.78997224569320679
aF0.79521429538726807
aF0.37625542283058167
aF0.88999533653259277
aF0.17675396800041199
aF0.17481349408626556
aF0.18729473650455475
aF0.29861724376678467
aF0.83197617530822754
aF0.040361110121011734
aF0.81348413228988647
aF0.033123016357421875
aF0.16143986582756042
aF0.035178571939468384
aF0.97766667604446411
aF0.10652525722980499
aF0.27980735898017883
aF0.5335577130317688
aF0.13065078854560852
aF0.31369048357009888
aF0.77268648147583008
aF0.37434127926826477
aF0.95739287137985229
aF0.85467976331710815
aF0.27307936549186707
aF0.11157143115997314
aF0.23183333873748779
aF0.48922222852706909
aF0.92909127473831177
aF0.27258729934692383
aF0.40221428871154785
aF0.42410317063331604
aF0.50203174352645874
aF0.29324999451637268
aF0.97317463159561157
aF0.62522619962692261
aF0.86974203586578369
aF0.845714271068573
aF0.027873016893863678
aF0.20146428048610687
aF0.84424203634262085
aF0.92047220468521118
aF0.67921030521392822
aF0.86344444751739502
aF0.30471032857894897
aF0.41293254494667053
aF0.82226985692977905
aF0.76844841241836548
aF0.01875000074505806
aF0.85120236873626709
aF0.58192497491836548
aF0.91160315275192261
aF0.89574998617172241
aF0.36251586675643921
aF0.68489682674407959
aF0.84179365634918213
aF0.9055476188659668
aF0.70220202207565308
aF0.29691118001937866
aF0.96074998378753662
aF0.72924602031707764
aF0.96238094568252563
aF0.83974027633666992
aF0.52959525585174561
aF0.76146030426025391
aF0.94910717010498047
aF0.59423798322677612
aF0.80165475606918335
aF0.81546282768249512
aF0.23895634710788727
aF0.29450395703315735
aF0.87587696313858032
aF0.94234919548034668
aF0.75772780179977417
aF0.36806747317314148
aF0.9190407395362854
aF0.6034126877784729
aF0.34576874971389771
aF0.96202778816223145
aF0.039527777582406998
aF0.62674862146377563
aF0.50936108827590942
aF0.40701985359191895
aF0.21338094770908356
aF0.20428571105003357
aF0.66233730316162109
aF0.58435314893722534
aF0.62528514862060547
aF0.028222223743796349
aF0.89491665363311768
aF0.77188891172409058
aF0.87820237874984741
aF0.78350794315338135
aF0.72566092014312744
aF0.70476007461547852
aF0.88156348466873169
aF0.64138096570968628
aF0.054793652147054672
aF0.76563489437103271
aF0.651206374168396
aF0.44364681839942932
aF0.35428968071937561
aF0.23942063748836517
aF0.42650395631790161
aF0.89820420742034912
aF0.48257538676261902
aF0.40129366517066956
aF0.41050794720649719
aF0.71944767236709595
aF0.8770872950553894
aF0.63617426156997681
aF0.33815872669219971
aF0.075369052588939667
aF0.74815076589584351
aF0.34098413586616516
aF0.24210713803768158
aF0.62456941604614258
aF0.81995797157287598
aF0.12066269665956497
aF0.7437712550163269
aF0.7265515923500061
aF0.13417857885360718
aF0.67876154184341431
aF0.89365875720977783
aF0.89671826362609863
aF0.76427382230758667
aF0.89296823740005493
aF0.62621825933456421
aF0.94567859172821045
aF0.93240368366241455
aF0.88647371530532837
aF0.44170635938644409
aF0.86497819423675537
aF0.0061071431264281273
aF0.80591267347335815
aF0.68950551748275757
aF0.86119771003723145
aF0.32568651437759399
aF0.17367039620876312
aF0.55937701463699341
aF0.14048810303211212
aF0.092749997973442078
aF0.32867461442947388
aF0.11422619223594666
aF0.05200793594121933
aF0.31483730673789978
aF0.13516810536384583
aF0.55342459678649902
aF0.97233331203460693
aF0.12969444692134857
aF0.20495238900184631
aF0.2638055682182312
aF0.67835319042205811
aF0.62139284610748291
aF0.4664246141910553
aF0.95965474843978882
aF0.19546428322792053
aF0.7047380805015564
aF0.40607756376266479
aF0.66128063201904297
aF0.6396365761756897
aF0.94055557250976562
aF0.050761904567480087
aF0.62340474128723145
aF0.33604112267494202
aF0.87276190519332886
aF0.44284090399742126
aF0.61695635318756104
aF0.68209922313690186
aF0.24461796879768372
aF0.85432142019271851
aF0.53550398349761963
aF0.90119045972824097
aF0.89315474033355713
aF0.26257538795471191
aF0.39352777600288391
aF0.14259596168994904
aF0.87384521961212158
aF0.19595634937286377
aF0.91133332252502441
aF0.9450303316116333
aF0.4773690402507782
aF0.91973811388015747
aF0.49010318517684937
aF0.56919443607330322
aF0.8395119309425354
aF0.72006493806838989
aF0.26517459750175476
aF0.2830793559551239
aF0.17143362760543823
aF0.76037883758544922
aF0.19265475869178772
aF0.70031744241714478
aF0.38085317611694336
aF0.98114287853240967
aF0.13177777826786041
aF0.83695632219314575
aF0.18720237910747528
aF0.27923810482025146
aF0.54155158996582031
aF0.57255160808563232
aF0.84620237350463867
aF0.46630159020423889
aF0.55822616815567017
aF0.51721823215484619
aF0.099518619477748871
aF0.97690474987030029
aF0.11232936382293701
aF0.95303571224212646
aF0.95914286375045776
aF0.47687897086143494
aF0.64240872859954834
aF0.068646825850009918
aF0.42444047331809998
aF0.50736111402511597
aF0.11821115761995316
aF0.85498017072677612
aF0.16681349277496338
aF0.93191272020339966
aF0.4435555636882782
aF0.88922220468521118
aF0.61804759502410889
aF0.2705952525138855
aF0.89436906576156616
aF0.41190114617347717
aF0.43519553542137146
aF0.93400394916534424
aF0.86156743764877319
aF0.68742460012435913
aF0.77807539701461792
aF0.43808332085609436
aF0.14505556225776672
aF0.27691668272018433
aF0.7583809494972229
aF0.113060362637043
aF0.20570996403694153
aF0.42627778649330139
aF0.01644444465637207
aF0.45333188772201538
aF0.96886110305786133
aF0.38110318779945374
aF0.6826627254486084
aF0.43358731269836426
aF0.1007976233959198
aF0.88132143020629883
aF0.52725398540496826
aF0.48596429824829102
aF0.15566739439964294
aF0.50889682769775391
aF0.82137298583984375
aF0.51175397634506226
aF0.5845833420753479
aF0.235015869140625
aF0.56753569841384888
aF0.74690473079681396
aF0.98196315765380859
aF0.5134245753288269
aF0.82734918594360352
aF0.52993255853652954
aF0.63386905193328857
aF0.91849207878112793
aF0.1729455292224884
aF0.80969047546386719
aF0.86540871858596802
aF0.65958333015441895
aF0.79434847831726074
aF0.13870635628700256
aF0.85342854261398315
aF0.60036510229110718
aF0.19460713863372803
aF0.37611508369445801
aF0.16056349873542786
aF0.23005159199237823
aF0.28908658027648926
aF0.35343274474143982
aF0.24763889610767365
aF0.48274531960487366
aF0.71774601936340332
aF0.62237948179244995
aF0.8149837851524353
aF0.10738889127969742
aF0.53484922647476196
aF0.18311507999897003
aF0.71720635890960693
aF0.76035749912261963
aF0.68876588344573975
aF0.01202777773141861
aF0.90681350231170654
aF0.5995180606842041
aF0.5660356879234314
aF0.27260318398475647
aF0.10253968089818954
aF0.58124208450317383
aF0.19446320831775665
aF0.98297619819641113
aF0.71192061901092529
aF0.69152504205703735
aF0.58924847841262817
aF0.12942856550216675
aF0.86898809671401978
aF0.79801589250564575
aF0.82449203729629517
aF0.37457937002182007
aF0.72205919027328491
aF0.56701189279556274
aF0.22673720121383667
aF0.8532261848449707
aF0.96064287424087524
aF0.5707777738571167
aF0.58635175228118896
aF0.71812701225280762
aF0.80443757772445679
aF0.95985716581344604
aF0.19390475749969482
aF0.25541666150093079
aF0.61692458391189575
aF0.17528030276298523
aF0.43136182427406311
aF0.7705952525138855
aF0.62627238035202026
aF0.98636907339096069
aF0.31549748778343201
aF0.87585711479187012
aF0.69996029138565063
aF0.4236428439617157
aF0.5854523777961731
aF0.60746031999588013
aF0.10953998565673828
aF0.1475100964307785
aF0.83743804693222046
aF0.81646031141281128
aF0.98035717010498047
aF0.62548410892486572
aF0.030273810029029846
aF0.20090152323246002
aF0.89360713958740234
aF0.44912013411521912
aF0.86969047784805298
aF0.58183729648590088
aF0.53286761045455933
aF0.13155555725097656
aF0.16138888895511627
aF0.87130552530288696
aF0.41659525036811829
aF0.41692855954170227
aF0.69032537937164307
aF0.076313495635986328
aF0.92726981639862061
aF0.4928174614906311
aF0.40340873599052429
aF0.66505157947540283
aF0.93480950593948364
aF0.95647621154785156
aF0.092988096177577972
aF0.54723989963531494
aF0.9338412880897522
aF0.24423016607761383
aF0.036976192146539688
aF0.86567461490631104
aF0.48118254542350769
aF0.65430951118469238
aF0.9289621114730835
aF0.42618650197982788
aF0.11570238322019577
aF0.15870635211467743
aF0.67693740129470825
aF0.97167855501174927
aF0.55273014307022095
aF0.90047222375869751
aF0.074916668236255646
aF0.92079365253448486
aF0.086916670203208923
aF0.1561150848865509
aF0.87258118391036987
aF0.36280158162117004
aF0.81967920064926147
aF0.70835316181182861
aF0.82052958011627197
aF0.20357286930084229
aF0.31984522938728333
aF0.97346031665802002
aF0.55084526538848877
aF0.79388093948364258
aF0.80515080690383911
aF0.82139682769775391
aF0.82388097047805786
aF0.93113094568252563
aF0.06469949334859848
aF0.38822221755981445
aF0.92307537794113159
aF0.6896204948425293
aF0.83458727598190308
aF0.15758045017719269
aF0.22924999892711639
aF0.37440600991249084
aF0.45638492703437805
aF0.77970635890960693
aF0.93648016452789307
aF0.86596822738647461
aF0.8390992283821106
aF0.85724174976348877
aF0.80847221612930298
aF0.55947220325469971
aF0.60685968399047852
aF0.072777777910232544
aF0.36494842171669006
aF0.96791666746139526
aF0.81483238935470581
aF0.8097759485244751
aF0.91326916217803955
aF0.23392461240291595
aF0.78232640027999878
aF0.33126190304756165
aF0.59434521198272705
aF0.75086510181427002
aF0.30258333683013916
aF0.70125794410705566
aF0.70592886209487915
aF0.55692672729492188
aF0.49689498543739319
aF0.89474999904632568
aF0.86451983451843262
aF0.68621033430099487
aF0.87114214897155762
aF0.63838887214660645
aF0.29465332627296448
aF0.21795238554477692
aF0.26259204745292664
aF0.88764071464538574
aF0.62128573656082153
aF0.17479364573955536
aF0.10588858276605606
aF0.9592936635017395
aF0.18911905586719513
aF0.033996030688285828
aF0.98075002431869507
aF0.89736509323120117
aF0.32936903834342957
aF0.86647224426269531
aF0.37381348013877869
aF0.16392064094543457
aF0.54336905479431152
aF0.14663888514041901
aF0.24379618465900421
aF0.8444628119468689
aF0.70901012420654297
aF0.25529366731643677
aF0.24939899146556854
aF0.13461904227733612
aF0.6137460470199585
aF0.63980555534362793
aF0.86657685041427612
aF0.49788492918014526
aF0.71969842910766602
aF0.51848810911178589
aF0.94455158710479736
aF0.47476693987846375
aF0.89165478944778442
aF0.92619442939758301
aF0.99666666984558105
aF0.017000000923871994
aF0.80552667379379272
aF0.22976984083652496
aF0.20750793814659119
aF0.98819446563720703
aF0.59347379207611084
aF0.72513490915298462
aF0.82380950450897217
aF0.35296288132667542
aF0.62208729982376099
aF0.07599206268787384
aF0.81489282846450806
aF0.9554404616355896
aF0.26389557123184204
aF0.15693651139736176
aF0.5785057544708252
aF0.34916666150093079
aF0.66827815771102905
aF0.94651985168457031
aF0.98123806715011597
aF0.89045238494873047
aF0.16969841718673706
aF0.27429869771003723
aF0.77153176069259644
aF0.74721282720565796
aF0.118055559694767
aF0.88331097364425659
aF0.26491269469261169
aF0.18842460215091705
aF0.25495237112045288
aF0.87729364633560181
aF0.76372224092483521
aF0.056492898613214493
aF0.63026982545852661
aF0.84331744909286499
aF0.73657560348510742
aF0.94326585531234741
aF0.33084523677825928
aF0.88402378559112549
aF0.37396824359893799
aF0.84689682722091675
aF0.25351586937904358
aF0.81642460823059082
aF0.86960715055465698
aF0.23417490720748901
aF0.082369051873683929
aF0.93864285945892334
aF0.78026986122131348
aF0.32727345824241638
aF0.61941272020339966
aF0.12452381104230881
aF0.34979364275932312
aF0.81098014116287231
aF0.69138491153717041
aF0.74235320091247559
aF0.32468527555465698
aF0.55188602209091187
aF0.2806190550327301
aF0.61329364776611328
aF0.033265873789787292
aF0.82867062091827393
aF0.17375794053077698
aF0.36446824669837952
aF0.97314286231994629
aF0.39452379941940308
aF0.84257936477661133
aF0.63688492774963379
aF0.52636110782623291
aF0.92142462730407715
aF0.17865549027919769
aF0.028666667640209198
aF0.083222225308418274
aF0.92267066240310669
aF0.14052380621433258
aF0.59438890218734741
aF0.74701189994812012
aF0.038317460566759109
aF0.97374999523162842
aF0.93034124374389648
aF0.81423413753509521
aF0.095857143402099609
aF0.60799205303192139
aF0.685535728931427
aF0.29923808574676514
aF0.70784521102905273
aF0.066666670143604279
aF0.69219839572906494
aF0.20467858016490936
aF0.032226189970970154
aF0.82189685106277466
aF0.90819048881530762
aF0.89166665077209473
aF0.10027381032705307
aF0.40716198086738586
aF0.10790765285491943
aF0.58081346750259399
aF0.82070636749267578
aF0.77676981687545776
aF0.18464682996273041
aF0.2653769850730896
aF0.83002775907516479
aF0.50064682960510254
aF0.59772366285324097
aF0.066500000655651093
aF0.86065077781677246
aF0.65830951929092407
aF0.9163055419921875
aF0.8628571629524231
aF0.041289683431386948
aF0.81098413467407227
aF0.77253967523574829
aF0.14231349527835846
aF0.83126586675643921
aF0.14598016440868378
aF0.98523807525634766
aF0.8148571252822876
aF0.85987448692321777
aF0.60415476560592651
aF0.80995339155197144
aF0.42732936143875122
aF0.061571430414915085
aF0.62549203634262085
aF0.67958331108093262
aF0.26255953311920166
aF0.89504760503768921
aF0.36619046330451965
aF0.52192062139511108
aF0.36015874147415161
aF0.66978573799133301
aF0.87841665744781494
aF0.74742859601974487
aF0.7101825475692749
aF0.42471030354499817
aF0.87813097238540649
aF0.98423808813095093
aF0.57394719123840332
aF0.95155555009841919
aF0.87527382373809814
aF0.93682539463043213
aF0.17390292882919312
aF0.060578282922506332
aF0.88640081882476807
aF0.50805950164794922
aF0.62844443321228027
aF0.53555160760879517
aF0.95403176546096802
aF0.85286903381347656
aF0.8752896785736084
aF0.34020346403121948
aF0.8359682559967041
aF0.30306348204612732
aF0.27230554819107056
aF0.96824997663497925
aF0.904369056224823
aF0.77944839000701904
aF0.1169603168964386
aF0.15096032619476318
aF0.90551584959030151
aF0.73163825273513794
aF0.031666666269302368
aF0.85787695646286011
aF0.88803571462631226
aF0.86980950832366943
aF0.77008330821990967
aF0.2971222996711731
aF0.23802247643470764
aF0.43076586723327637
aF0.70185571908950806
aF0.3888888955116272
aF0.91503572463989258
aF0.40103626251220703
aF0.3684801459312439
aF0.75831383466720581
aF0.65949928760528564
aF0.82194441556930542
aF0.19032792747020721
aF0.023690477013587952
aF0.33347222208976746
aF0.94038093090057373
aF0.6426054835319519
aF0.79171431064605713
aF0.22312301397323608
aF0.69807142019271851
aF0.17512302100658417
aF0.16242171823978424
aF0.25853678584098816
aF0.60280770063400269
aF0.95442426204681396
aF0.311301589012146
aF0.84784525632858276
aF0.89503175020217896
aF0.78802776336669922
aF0.087079368531703949
aF0.904285728931427
aF0.45188888907432556
aF0.86234521865844727
aF0.5028412938117981
aF0.064571432769298553
aF0.10561905056238174
aF0.16991667449474335
aF0.72224998474121094
aF0.64335715770721436
aF0.53923410177230835
aF0.42204833030700684
aF0.73727947473526001
aF0.12510684132575989
aF0.69008082151412964
aF0.84154367446899414
aF0.79051399230957031
aF0.017539681866765022
aF0.50919049978256226
aF0.69990080595016479
aF0.14739285409450531
aF0.70343649387359619
aF0.029999999329447746
aF0.0086666671559214592
aF0.14167460799217224
aF0.68645238876342773
aF0.13890080153942108
aF0.34897619485855103
aF0.62322920560836792
aF0.81557935476303101
aF0.71182936429977417
aF0.059142857789993286
aF0.16030411422252655
aF0.80922222137451172
aF0.37122619152069092
aF0.14848808944225311
aF0.22402778267860413
aF0.83553177118301392
aF0.94512456655502319
aF0.13838492333889008
aF0.8318135142326355
aF0.44778966903686523
aF0.6353452205657959
aF0.75934767723083496
aF0.35088887810707092
aF0.90342855453491211
aF0.8063730001449585
aF0.90657538175582886
aF0.41274207830429077
aF0.76978212594985962
aF0.92938095331192017
aF0.71838492155075073
aF0.096952378749847412
aF0.76938635110855103
aF0.42696031928062439
aF0.069051951169967651
aF0.31400251388549805
aF0.23739790916442871
aF0.17776191234588623
aF0.055047620087862015
aF0.19237302243709564
aF0.8854365348815918
aF0.2769545316696167
aF0.31730556488037109
aF0.79662299156188965
aF0.59736108779907227
aF0.18957395851612091
aF0.05260317400097847
aF0.48691919445991516
aF0.12015079706907272
aF0.54224604368209839
aF0.52692854404449463
aF0.73900395631790161
aF0.14913095533847809
aF0.81663095951080322
aF0.086392857134342194
aF0.43249070644378662
aF0.91247659921646118
aF0.59713494777679443
aF0.097369052469730377
aF0.83742457628250122
aF0.3675418496131897
aF0.90276187658309937
aF0.097857147455215454
aF0.78796428442001343
aF0.9409523606300354
aF0.39127379655838013
aF0.67916083335876465
aF0.30088093876838684
aF0.9441031813621521
aF0.68325001001358032
aF0.96657145023345947
aF0.74654823541641235
aF0.47247618436813354
aF0.72912299633026123
aF0.97309523820877075
aF0.54038494825363159
aF0.14587698876857758
aF0.6696428656578064
aF0.73159521818161011
aF0.85219413042068481
aF0.91497617959976196
aF0.25676563382148743
aF0.88853174448013306
aF0.32331961393356323
aF0.80842065811157227
aF0.086537882685661316
aF0.10460281372070312
aF0.29256024956703186
aF0.49303328990936279
aF0.90600001811981201
aF0.90284526348114014
aF0.203083336353302
aF0.75090873241424561
aF0.44572439789772034
aF0.62106025218963623
aF0.82523810863494873
aF0.7300039529800415
aF0.32840871810913086
aF0.82132542133331299
aF0.34417062997817993
aF0.32006350159645081
aF0.30876588821411133
aF0.39890766143798828
aF0.050742063671350479
aF0.76450002193450928
aF0.11903571337461472
aF0.88078570365905762
aF0.98299998044967651
aF0.78643578290939331
aF0.03241666778922081
aF0.84745240211486816
aF0.82455557584762573
aF0.55290079116821289
aF0.77047616243362427
aF0.050376374274492264
aF0.58802378177642822
aF0.093615077435970306
aF0.98689287900924683
aF0.54854977130889893
aF0.31641668081283569
aF0.67070132493972778
aF0.74763333797454834
aF0.89769047498703003
aF0.27281349897384644
aF0.8156428337097168
aF0.83047765493392944
aF0.74794840812683105
aF0.14522691071033478
aF0.25947222113609314
aF0.23818254470825195
aF0.080559521913528442
aF0.38538888096809387
aF0.86766666173934937
aF0.3516349196434021
aF0.85998016595840454
aF0.96998411417007446
aF0.77010315656661987
aF0.78415405750274658
aF0.88066953420639038
aF0.11890873312950134
aF0.36792460083961487
aF0.15275396406650543
aF0.33222329616546631
aF0.13765078783035278
aF0.13829761743545532
aF0.61980557441711426
aF0.13524603843688965
aF0.76767063140869141
aF0.76049816608428955
aF0.98028570413589478
aF0.13284127414226532
aF0.40009921789169312
aF0.33068650960922241
aF0.85616159439086914
aF0.3067023754119873
aF0.79862695932388306
aF0.88788890838623047
aF0.95241665840148926
aF0.67761510610580444
aF0.78603172302246094
aF0.045936509966850281
aF0.68801587820053101
aF0.44332143664360046
aF0.63809525966644287
aF0.78958332538604736
aF0.54789680242538452
aF0.41858333349227905
aF0.2626071572303772
aF0.83553570508956909
aF0.42388492822647095
aF0.20389285683631897
aF0.81578570604324341
aF0.87025398015975952
aF0.79842859506607056
aF0.93088889122009277
aF0.17332360148429871
aF0.89849603176116943
aF0.44959920644760132
aF0.45820635557174683
aF0.23763513565063477
aF0.12806890904903412
aF0.82244729995727539
aF0.075980156660079956
aF0.14657142758369446
aF0.071980156004428864
aF0.29646825790405273
aF0.66316729784011841
aF0.8054998517036438
aF0.08608730137348175
aF0.026039682328701019
aF0.59365874528884888
aF0.40552777051925659
aF0.44709128141403198
aF0.8195645809173584
aF0.38012698292732239
aF0.95472222566604614
aF0.21875672042369843
aF0.76080161333084106
aF0.60586923360824585
aF0.1345277726650238
aF0.26730158925056458
aF0.49703571200370789
aF0.09851190447807312
aF0.13624206185340881
aF0.83444446325302124
aF0.90171825885772705
aF0.75979363918304443
aF0.59856563806533813
aF0.73736906051635742
aF0.18328967690467834
aF0.23773497343063354
aF0.1589166671037674
aF0.65258336067199707
aF0.76184523105621338
aF0.095071427524089813
aF0.13440872728824615
aF0.19869047403335571
aF0.66144508123397827
aF0.38930556178092957
aF0.18646825850009918
aF0.58290082216262817
aF0.7049451470375061
aF0.68197619915008545
aF0.69402778148651123
aF0.96718651056289673
aF0.47658729553222656
aF0.83599603176116943
aF0.80922669172286987
aF0.67201769351959229
aF0.31898480653762817
aF0.095809526741504669
aF0.77703970670700073
aF0.8755793571472168
aF0.54505228996276855
aF0.086134918034076691
aF0.88123410940170288
aF0.38403895497322083
aF0.12969841063022614
aF0.89606744050979614
aF0.66716665029525757
aF0.90907430648803711
aF0.60286509990692139
aF0.052821427583694458
aF0.17331349849700928
aF0.86915874481201172
aF0.043666668236255646
aF0.73410314321517944
aF0.072968252003192902
aF0.59454363584518433
aF0.83235317468643188
aF0.86160778999328613
aF0.81553173065185547
aF0.95499998331069946
aF0.81569045782089233
aF0.67918652296066284
aF0.41471055150032043
aF0.43563887476921082
aF0.32462301850318909
aF0.27596321702003479
aF0.63732248544692993
aF0.2324700653553009
aF0.24966980516910553
aF0.10370635241270065
aF0.84804010391235352
aF0.037646826356649399
aF0.57107144594192505
aF0.40777778625488281
aF0.21430303156375885
aF0.24111507833003998
aF0.0047821067273616791
aF0.13973124325275421
aF0.27477020025253296
aF0.82481348514556885
aF0.82833331823348999
aF0.91693651676177979
aF0.52570635080337524
aF0.38569048047065735
aF0.095361113548278809
aF0.7694087028503418
aF0.42334127426147461
aF0.26103967428207397
aF0.69142061471939087
aF0.041559524834156036
aF0.18119841814041138
aF0.97498810291290283
aF0.41895237565040588
aF0.038297619670629501
aF0.21364906430244446
aF0.6753770112991333
aF0.46101334691047668
aF0.22705952823162079
aF0.92784124612808228
aF0.53974622488021851
aF0.85922789573669434
aF0.28762444853782654
aF0.064821429550647736
aF0.83486509323120117
aF0.26598015427589417
aF0.98677778244018555
aF0.15090873837471008
aF0.90745633840560913
aF0.96134918928146362
aF0.73793399333953857
aF0.40328571200370789
aF0.76191198825836182
aF0.079884923994541168
aF0.51847219467163086
aF0.81484431028366089
aF0.88821429014205933
aF0.42504364252090454
aF0.32716667652130127
aF0.99599999189376831
aF0.32660317420959473
aF0.94295239448547363
aF0.015333333052694798
aF0.57136613130569458
aF0.10224206745624542
aF0.26230159401893616
aF0.69507139921188354
aF0.51973044872283936
aF0.23199602961540222
aF0.20753967761993408
aF0.74210625886917114
aF0.15839286148548126
aF0.10817857086658478
aF0.88342493772506714
aF0.21716703474521637
aF0.53483331203460693
aF0.39310714602470398
aF0.27718183398246765
aF0.52209526300430298
aF0.46720239520072937
aF0.813182532787323
aF0.2141147255897522
aF0.093408733606338501
aF0.84228968620300293
aF0.41720634698867798
aF0.22107936441898346
aF0.26197221875190735
aF0.28961905837059021
aF0.58005648851394653
aF0.76828569173812866
aF0.59957540035247803
aF0.95270240306854248
aF0.78275161981582642
aF0.5802236795425415
aF0.47069445252418518
aF0.17032539844512939
aF0.17313095927238464
aF0.13485173881053925
aF0.18764285743236542
aF0.81304764747619629
aF0.082040600478649139
aF0.68558335304260254
aF0.29366666078567505
aF0.71902960538864136
aF0.042658731341362
aF0.63970237970352173
aF0.39136508107185364
aF0.30871030688285828
aF0.55793648958206177
aF0.864460289478302
aF0.093674607574939728
aF0.30326443910598755
aF0.44899207353591919
aF0.064793653786182404
aF0.79095631837844849
aF0.70257937908172607
aF0.29154366254806519
aF0.23300793766975403
aF0.78125667572021484
aF0.60408729314804077
aF0.77948415279388428
aF0.56932145357131958
aF0.8509325385093689
aF0.84755951166152954
aF0.44917857646942139
aF0.67490148544311523
aF0.808055579662323
aF0.10826984047889709
aF0.84465873241424561
aF0.10849206149578094
aF0.85002380609512329
aF0.78592461347579956
aF0.72645235061645508
aF0.26731747388839722
aF0.78767853975296021
aF0.34184920787811279
aF0.34631350636482239
aF0.023690477013587952
aF0.087039686739444733
aF0.9131428599357605
aF0.052908729761838913
aF0.045583333820104599
aF0.20311219990253448
aF0.094444446265697479
aF0.91078770160675049
aF0.59722220897674561
aF0.15102380514144897
aF0.87107139825820923
aF0.10826587677001953
aF0.36505556106567383
aF0.83556562662124634
aF0.46811509132385254
aF0.67638492584228516
aF0.28878822922706604
aF0.22269842028617859
aF0.74575793743133545
aF0.84493255615234375
aF0.25070634484291077
aF0.84036111831665039
aF0.77694445848464966
aF0.53268653154373169
aF0.097857147455215454
aF0.78750759363174438
aF0.72291266918182373
aF0.85216665267944336
aF0.76881349086761475
aF0.69017994403839111
aF0.24161110818386078
aF0.64391940832138062
aF0.15693651139736176
aF0.25414827466011047
aF0.20115873217582703
aF0.021634921431541443
aF0.79907536506652832
aF0.087120130658149719
aF0.85891664028167725
aF0.92415076494216919
aF0.90229761600494385
aF0.93201249837875366
aF0.96289283037185669
aF0.69832789897918701
aF0.28663888573646545
aF0.046952381730079651
aF0.93225002288818359
aF0.91209125518798828
aF0.50976192951202393
aF0.79172223806381226
aF0.84087300300598145
aF0.11731349676847458
aF0.52630555629730225
aF0.10099206864833832
aF0.2547738254070282
aF0.93292856216430664
aF0.62917459011077881
aF0.81501191854476929
aF0.58441990613937378
aF0.49082142114639282
aF0.87415111064910889
aF0.54218792915344238
aF0.45624315738677979
aF0.074412703514099121
aF0.22860316932201385
aF0.24160744249820709
aF0.71324998140335083
aF0.87014681100845337
aF0.97052383422851562
aF0.90630155801773071
aF0.47432538866996765
aF0.11773016303777695
aF0.8165515661239624
aF0.21813492476940155
aF0.058158591389656067
aF0.37717461585998535
aF0.76017856597900391
aF0.45836326479911804
aF0.15068253874778748
aF0.54017060995101929
aF0.086329363286495209
aF0.70995420217514038
aF0.50594013929367065
aF0.27115872502326965
aF0.65578967332839966
aF0.4309801459312439
aF0.60494047403335571
aF0.813698410987854
aF0.93685317039489746
aF0.21991819143295288
aF0.25849604606628418
aF0.64622366428375244
aF0.1406349241733551
aF0.081742063164710999
aF0.65112519264221191
aF0.93263489007949829
aF0.13717857003211975
aF0.68401986360549927
aF0.9680476188659668
aF0.11638384312391281
aF0.88657933473587036
aF0.92422223091125488
aF0.22309920191764832
aF0.053988095372915268
aF0.34785318374633789
aF0.90313917398452759
aF0.93976908922195435
aF0.06527777761220932
aF0.78005629777908325
aF0.91775000095367432
aF0.81966668367385864
aF0.97772222757339478
aF0.98222219944000244
aF0.43588024377822876
aF0.78306746482849121
aF0.056583333760499954
aF0.71255952119827271
aF0.81424605846405029
aF0.89444047212600708
aF0.91619044542312622
aF0.71636509895324707
aF0.69471824169158936
aF0.70817458629608154
aF0.11522006243467331
aF0.62246823310852051
aF0.23936110734939575
aF0.88765478134155273
aF0.83572620153427124
aF0.86579763889312744
aF0.021154763177037239
aF0.045166667550802231
aF0.40528175234794617
aF0.30763888359069824
aF0.76440870761871338
aF0.82519441843032837
aF0.53926271200180054
aF0.79827523231506348
aF0.2423730194568634
aF0.21589033305644989
aF0.64852994680404663
aF0.66072040796279907
aF0.4213690459728241
aF0.55827778577804565
aF0.8394206166267395
aF0.47998017072677612
aF0.76870423555374146
aF0.92525994777679443
aF0.074567459523677826
aF0.86522185802459717
aF0.21474206447601318
aF0.56161904335021973
aF0.10157936811447144
aF0.16296428442001343
aF0.83995634317398071
aF0.61895203590393066
aF0.08660714328289032
aF0.14756746590137482
aF0.80528175830841064
aF0.96207141876220703
aF0.65921425819396973
aF0.15442338585853577
aF0.34819373488426208
aF0.92947620153427124
aF0.011920635588467121
aF0.25987699627876282
aF0.71990859508514404
aF0.8547857403755188
aF0.50048410892486572
aF0.12005952745676041
aF0.86747616529464722
aF0.73480552434921265
aF0.14086508750915527
aF0.8809516429901123
aF0.98955553770065308
aF0.51394844055175781
aF0.28141269087791443
aF0.11605952680110931
aF0.88335716724395752
aF0.27589285373687744
aF0.29608801007270813
aF0.62166768312454224
aF0.16227380931377411
aF0.094218254089355469
aF0.82223230600357056
aF0.96219044923782349
aF0.8845595121383667
aF0.48406600952148438
aF0.90483331680297852
aF0.89551985263824463
aF0.36852097511291504
aF0.14740079641342163
aF0.11621429026126862
aF0.72373414039611816
aF0.11953968554735184
aF0.16679437458515167
aF0.87433731555938721
aF0.6215595006942749
aF0.87083727121353149
aF0.58474892377853394
aF0.27209091186523438
aF0.36936110258102417
aF0.5035555362701416
aF0.98257142305374146
aF0.34016269445419312
aF0.48364284634590149
aF0.87080949544906616
aF0.82618254423141479
aF0.29657906293869019
aF0.72642999887466431
aF0.88725793361663818
aF0.984416663646698
aF0.16493651270866394
aF0.62393653392791748
aF0.77812695503234863
aF0.039414141327142715
aF0.07581745833158493
aF0.78399604558944702
aF0.30089285969734192
aF0.7590833306312561
aF0.69862395524978638
aF0.44727778434753418
aF0.18052229285240173
aF0.85892462730407715
aF0.44718649983406067
aF0.61881887912750244
aF0.27499207854270935
aF0.18071140348911285
aF0.82304114103317261
aF0.81037300825119019
aF0.32287627458572388
aF0.46551677584648132
aF0.058793652802705765
aF0.45407935976982117
aF0.27191665768623352
aF0.72150719165802002
aF0.9275277853012085
aF0.80400002002716064
aF0.50348812341690063
aF0.83566272258758545
aF0.85148674249649048
aF0.84520488977432251
aF0.89438492059707642
aF0.61536902189254761
aF0.19465476274490356
aF0.51665329933166504
aF0.8495476245880127
aF0.73592531681060791
aF0.90474206209182739
aF0.46565476059913635
aF0.92940080165863037
aF0.8086666464805603
aF0.11547619104385376
aF0.82506746053695679
aF0.28779366612434387
aF0.7676013708114624
aF0.8728492259979248
aF0.5488506555557251
aF0.87236183881759644
aF0.14729762077331543
aF0.69066667556762695
aF0.67975592613220215
aF0.014666667208075523
aF0.039027780294418335
aF0.17762301862239838
aF0.46761906147003174
aF0.71874207258224487
aF0.38919046521186829
aF0.74491268396377563
aF0.11327777802944183
aF0.28535318374633789
aF0.29663312435150146
aF0.72297853231430054
aF0.55287700891494751
aF0.23641666769981384
aF0.087920635938644409
aF0.86326587200164795
aF0.14777813851833344
aF0.87266290187835693
aF0.072499997913837433
aF0.88769048452377319
aF0.66695636510848999
aF0.1504673957824707
aF0.96783334016799927
aF0.71675235033035278
aF0.10105952620506287
aF0.67088747024536133
aF0.77005159854888916
aF0.84660607576370239
aF0.87527382373809814
aF0.27533730864524841
aF0.81206566095352173
aF0.92208331823348999
aF0.20519047975540161
aF0.21065476536750793
aF0.83116668462753296
aF0.82828569412231445
aF0.075083330273628235
aF0.73965871334075928
aF0.76928788423538208
aF0.15404166281223297
aF0.47674998641014099
aF0.92368650436401367
aF0.76302778720855713
aF0.26735317707061768
aF0.13310912251472473
aF0.61428451538085938
aF0.60961508750915527
aF0.21604365110397339
aF0.35899746417999268
aF0.98774999380111694
aF0.43213292956352234
aF0.16416990756988525
aF0.5087738037109375
aF0.94508731365203857
aF0.58323806524276733
aF0.22754365205764771
aF0.66826587915420532
aF0.1384444385766983
aF0.020500000566244125
aF0.30122247338294983
aF0.69173866510391235
aF0.72285711765289307
aF0.55718833208084106
aF0.047059524804353714
aF0.028695527464151382
aF0.24951983988285065
aF0.43514683842658997
aF0.78495240211486816
aF0.79964196681976318
aF0.5741269588470459
aF0.79828572273254395
aF0.13647618889808655
aF0.84304362535476685
aF0.60590684413909912
aF0.59130954742431641
aF0.44200396537780762
aF0.061191920191049576
aF0.83613890409469604
aF0.90739685297012329
aF0.19179761409759521
aF0.87526804208755493
aF0.43128186464309692
aF0.77921825647354126
aF0.37159126996994019
aF0.23148052394390106
aF0.82732540369033813
aF0.31080159544944763
aF0.49186328053474426
aF0.77213096618652344
aF0.6774936318397522
aF0.67427742481231689
aF0.092710316181182861
aF0.76225793361663818
aF0.073222219944000244
aF0.48578572273254395
aF0.89727777242660522
aF0.77609920501708984
aF0.62723410129547119
aF0.017142858356237411
aF0.89707756042480469
aF0.2462698370218277
aF0.25600793957710266
aF0.69344443082809448
aF0.73634123802185059
aF0.11025366187095642
aF0.13053968548774719
aF0.046706348657608032
aF0.97955554723739624
aF0.94669842720031738
aF0.56483727693557739
aF0.35875794291496277
aF0.75201189517974854
aF0.25656628608703613
aF0.34535714983940125
aF0.98254364728927612
aF0.34902381896972656
aF0.4220198392868042
aF0.93863886594772339
aF0.10490476340055466
aF0.90114063024520874
aF0.85444718599319458
aF0.7411046028137207
aF0.75846034288406372
aF0.57359129190444946
aF0.92985713481903076
aF0.9180634617805481
aF0.97643256187438965
aF0.85363489389419556
aF0.83544045686721802
aF0.60629367828369141
aF0.19719444215297699
aF0.60016268491744995
aF0.86237013339996338
aF0.72850000858306885
aF0.13451190292835236
aF0.37838888168334961
aF0.37156745791435242
aF0.097246035933494568
aF0.11565079540014267
aF0.10651587694883347
aF0.76816266775131226
aF0.47105953097343445
aF0.73990964889526367
aF0.44243651628494263
aF0.88293254375457764
aF0.24790476262569427
aF0.38906747102737427
aF0.029428571462631226
aF0.83063095808029175
aF0.36218652129173279
aF0.15138095617294312
aF0.1424819678068161
aF0.09707178920507431
aF0.71826982498168945
aF0.072333335876464844
aF0.5314667820930481
aF0.78703570365905762
aF0.41328173875808716
aF0.17785714566707611
aF0.72267532348632812
aF0.47586110234260559
aF0.95128172636032104
aF0.75514501333236694
aF0.58005553483963013
aF0.12824459373950958
aF0.43532538414001465
aF0.64034378528594971
aF0.75029760599136353
aF0.15818651020526886
aF0.45728570222854614
aF0.57502776384353638
aF0.85103172063827515
aF0.098646827042102814
aF0.72629594802856445
aF0.84741908311843872
aF0.27265080809593201
aF0.83355772495269775
aF0.00491666654124856
aF0.13840079307556152
aF0.7165912389755249
aF0.15553174912929535
aF0.37078967690467834
aF0.26007935404777527
aF0.93203175067901611
aF0.64838886260986328
aF0.91495633125305176
aF0.91376984119415283
aF0.30771824717521667
aF0.4311031699180603
aF0.76584124565124512
aF0.35481151938438416
aF0.10928968340158463
aF0.1644761860370636
aF0.87502443790435791
aF0.28987699747085571
aF0.61938095092773438
aF0.97607141733169556
aF0.066678568720817566
aF0.63213491439819336
aF0.9596666693687439
aF0.79990142583847046
aF0.67734557390213013
aF0.34450829029083252
aF0.43785715103149414
aF0.93308335542678833
aF0.17952777445316315
aF0.84063494205474854
aF0.12250793725252151
aF0.30561906099319458
aF0.91958731412887573
aF0.22260317206382751
aF0.79336905479431152
aF0.81060713529586792
aF0.75368469953536987
aF0.21089285612106323
aF0.97832143306732178
aF0.76836037635803223
aF0.95184922218322754
aF0.84369266033172607
aF0.3575039803981781
aF0.04305555671453476
aF0.60593253374099731
aF0.088544376194477081
aF0.78641593456268311
aF0.096060611307621002
aF0.91971427202224731
aF0.86701345443725586
aF0.89967858791351318
aF0.84721392393112183
aF0.92072224617004395
aF0.29071033000946045
aF0.98933333158493042
aF0.34753012657165527
aF0.57918435335159302
aF0.70355224609375
aF0.91339683532714844
aF0.27823016047477722
aF0.64623159170150757
aF0.083746030926704407
aF0.64699208736419678
aF0.1018928587436676
aF0.23490040004253387
aF0.63605159521102905
aF0.68505555391311646
aF0.81740874052047729
aF0.038428571075201035
aF0.28042855858802795
aF0.24259920418262482
aF0.74635714292526245
aF0.71568900346755981
aF0.45753175020217896
aF0.81823015213012695
aF0.088115081191062927
aF0.21092857420444489
aF0.053611110895872116
aF0.250682532787323
aF0.41094842553138733
aF0.17681349813938141
aF0.50202685594558716
aF0.22576984763145447
aF0.59785711765289307
aF0.86153572797775269
aF0.36720418930053711
aF0.29055988788604736
aF0.15221032500267029
aF0.55697321891784668
aF0.17315079271793365
aF0.95047223567962646
aF0.87167066335678101
aF0.15867063403129578
aF0.8225555419921875
aF0.1074007973074913
aF0.92007142305374146
aF0.059480160474777222
aF0.74628174304962158
aF0.84192639589309692
aF0.1570555567741394
aF0.058825399726629257
aF0.80896824598312378
aF0.78147441148757935
aF0.77865082025527954
aF0.28194841742515564
aF0.94017750024795532
aF0.79619443416595459
aF0.58042889833450317
aF0.27144840359687805
aF0.94421029090881348
aF0.91339284181594849
aF0.86313998699188232
aF0.45217856764793396
aF0.92931747436523438
aF0.85698413848876953
aF0.53828966617584229
aF0.090710319578647614
aF0.92876189947128296
aF0.63945239782333374
aF0.90466666221618652
aF0.93686288595199585
aF0.57158732414245605
aF0.96003574132919312
aF0.39676189422607422
aF0.020689614117145538
aF0.89585715532302856
aF0.77505952119827271
aF0.48493650555610657
aF0.66082537174224854
aF0.60433334112167358
aF0.089226916432380676
aF0.74126589298248291
aF0.63777381181716919
aF0.56482142210006714
aF0.8813135027885437
aF0.86130952835083008
aF0.62043255567550659
aF0.13453571498394012
aF0.36943253874778748
aF0.25527778267860413
aF0.49468255043029785
aF0.47844842076301575
aF0.87028568983078003
aF0.26092064380645752
aF0.47015476226806641
aF0.98689740896224976
aF0.25217461585998535
aF0.21049205958843231
aF0.29492858052253723
aF0.39484128355979919
aF0.091313496232032776
aF0.60532212257385254
aF0.33986112475395203
aF0.49243253469467163
aF0.26971429586410522
aF0.74472618103027344
aF0.71698808670043945
aF0.55705952644348145
aF0.38143253326416016
aF0.33159920573234558
aF0.19248810410499573
aF0.63211506605148315
aF0.12503175437450409
aF0.68515455722808838
aF0.74229758977890015
aF0.89756745100021362
aF0.31165078282356262
aF0.92432141304016113
aF0.72305554151535034
aF0.79503965377807617
aF0.38615873456001282
aF0.8258095383644104
aF0.71482139825820923
aF0.81119441986083984
aF0.5033109188079834
aF0.04387301579117775
aF0.029055556282401085
aF0.096769839525222778
aF0.88328570127487183
aF0.87720632553100586
aF0.89509183168411255
aF0.80550795793533325
aF0.54578053951263428
aF0.24738492071628571
aF0.032988093793392181
aF0.011428571306169033
aF0.026000000536441803
aF0.75336509943008423
aF0.57969045639038086
aF0.38113889098167419
aF0.52698415517807007
aF0.7101626992225647
aF0.57337695360183716
aF0.088206350803375244
aF0.90657144784927368
aF0.015484962612390518
aF0.54263526201248169
aF0.26242062449455261
aF0.83150792121887207
aF0.51355952024459839
aF0.55953574180603027
aF0.2513849139213562
aF0.82692062854766846
aF0.052932541817426682
aF0.5549430251121521
aF0.17984126508235931
aF0.53881746530532837
aF0.60966271162033081
aF0.53956747055053711
aF0.41307538747787476
aF0.89676189422607422
aF0.60503172874450684
aF0.86530953645706177
aF0.96399998664855957
aF0.66661113500595093
aF0.95773017406463623
aF0.84804362058639526
aF0.16437698900699615
aF0.17733334004878998
aF0.95447617769241333
aF0.50530952215194702
aF0.91067618131637573
aF0.56278175115585327
aF0.17011508345603943
aF0.36534920334815979
aF0.87591993808746338
aF0.19611111283302307
aF0.13385714590549469
aF0.27026191353797913
aF0.96983331441879272
aF0.1597936600446701
aF0.42003968358039856
aF0.45850396156311035
aF0.13382937014102936
aF0.91349601745605469
aF0.68518215417861938
aF0.87636113166809082
aF0.83821827173233032
aF0.10563167184591293
aF0.26824206113815308
aF0.36247223615646362
aF0.14979761838912964
aF0.040869049727916718
aF0.59940081834793091
aF0.45626586675643921
aF0.79973393678665161
aF0.55887699127197266
aF0.56126803159713745
aF0.72220057249069214
aF0.62759125232696533
aF0.5886150598526001
aF0.32423412799835205
aF0.75142854452133179
aF0.3282698392868042
aF0.53750002384185791
aF0.27330160140991211
aF0.95778572559356689
aF0.77541667222976685
aF0.64734631776809692
aF0.11633441597223282
aF0.23129364848136902
aF0.24711905419826508
aF0.16493651270866394
aF0.2905714213848114
aF0.066297620534896851
aF0.032595239579677582
aF0.61706072092056274
aF0.65406423807144165
aF0.90211904048919678
aF0.31866666674613953
aF0.53917461633682251
aF0.44817459583282471
aF0.90114283561706543
aF0.72191452980041504
aF0.2171071469783783
aF0.80443251132965088
aF0.89948809146881104
aF0.27190080285072327
aF0.87652778625488281
aF0.61292064189910889
aF0.88485711812973022
aF0.75801587104797363
aF0.66651803255081177
aF0.75998806953430176
aF0.52078568935394287
aF0.26331746578216553
aF0.88776981830596924
aF0.95898807048797607
aF0.5233113169670105
aF0.33735966682434082
aF0.056281745433807373
aF0.67845797538757324
aF0.42798411846160889
aF0.60266375541687012
aF0.72246426343917847
aF0.84415477514266968
aF0.075353175401687622
aF0.067285716533660889
aF0.60412299633026123
aF0.50747621059417725
aF0.58324605226516724
aF0.92921823263168335
aF0.7170371413230896
aF0.50054365396499634
aF0.79109525680541992
aF0.97646427154541016
aF0.34505122900009155
aF0.18305952847003937
aF0.85765081644058228
aF0.15218642354011536
aF0.081428572535514832
aF0.9450753927230835
aF0.41169443726539612
aF0.32159921526908875
aF0.78529363870620728
aF0.87276190519332886
aF0.15133658051490784
aF0.46249604225158691
aF0.39913094043731689
aF0.75551986694335938
aF0.89558333158493042
aF0.55180555582046509
aF0.42939683794975281
aF0.43896031379699707
aF0.073075398802757263
aF0.96415871381759644
aF0.90191668272018433
aF0.51782935857772827
aF0.25141268968582153
aF0.80498808622360229
aF0.021333333104848862
a.