(lp1
F0.92724204063415527
aF0.80748414993286133
aF0.11188492178916931
aF0.71996825933456421
aF0.030635608360171318
aF0.079059526324272156
aF0.34336903691291809
aF0.053956348448991776
aF0.046896826475858688
aF0.91705161333084106
aF0.042706351727247238
aF0.91805160045623779
aF0.71867460012435913
aF0.97232145071029663
aF0.88236904144287109
aF0.96744441986083984
aF0.67223811149597168
aF0.091333337128162384
aF0.80551010370254517
aF0.090738095343112946
aF0.048897977918386459
aF0.4384177029132843
aF0.78991669416427612
aF0.12284523993730545
aF0.95090872049331665
aF0.96527379751205444
aF0.84193652868270874
aF0.97590476274490356
aF0.21085137128829956
aF0.94579362869262695
aF0.68411505222320557
aF0.42068865895271301
aF0.81959521770477295
aF0.071726188063621521
aF0.99433332681655884
aF0.94428175687789917
aF0.87853968143463135
aF0.030444445088505745
aF0.96971428394317627
aF0.29432827234268188
aF0.190992072224617
aF0.90398991107940674
aF0.76232540607452393
aF0.97708332538604736
aF0.74964284896850586
aF0.48631745576858521
aF0.82086509466171265
aF0.76821029186248779
aF0.87020236253738403
aF0.91012698411941528
aF0.92665404081344604
aF0.88243252038955688
aF0.95183330774307251
aF0.98376190662384033
aF0.92395240068435669
aF0.67631745338439941
aF0.088619045913219452
aF0.33145636320114136
aF0.73202705383300781
aF0.82063096761703491
aF0.52298629283905029
aF0.22440873086452484
aF0.97644442319869995
aF0.92786109447479248
aF0.1802142858505249
aF0.95360314846038818
aF0.99033331871032715
aF0.2893928587436676
aF0.075988098978996277
aF0.98073017597198486
aF0.28849762678146362
aF0.38307070732116699
aF0.47051984071731567
aF0.14323413372039795
aF0.47853174805641174
aF0.045466423034667969
aF0.37872219085693359
aF0.036095239222049713
aF0.97708332538604736
aF0.38534921407699585
aF0.96378570795059204
aF0.92847621440887451
aF0.1628359854221344
aF0.50288093090057373
aF0.8019942045211792
aF0.74007540941238403
aF0.83595633506774902
aF0.87415081262588501
aF0.83984923362731934
aF0.11491666734218597
aF0.058412697166204453
aF0.089900791645050049
aF0.93803173303604126
aF0.26820635795593262
aF0.77043795585632324
aF0.8390079140663147
aF0.86189287900924683
aF0.39252778887748718
aF0.85251551866531372
aF0.85167062282562256
aF0.98728573322296143
aF0.74174207448959351
aF0.52684593200683594
aF0.13768145442008972
aF0.910777747631073
aF0.35624602437019348
aF0.30276888608932495
aF0.76376986503601074
aF0.40639537572860718
aF0.054816849529743195
aF0.088626988232135773
aF0.093571431934833527
aF0.9870833158493042
aF0.72801190614700317
aF0.26956349611282349
aF0.85708731412887573
aF0.96066665649414062
aF0.91116666793823242
aF0.23367460072040558
aF0.99171429872512817
aF0.54422438144683838
aF0.93579763174057007
aF0.069460317492485046
aF0.13231277465820312
aF0.28914466500282288
aF0.11346248537302017
aF0.033785715699195862
aF0.14635317027568817
aF0.97080552577972412
aF0.92208510637283325
aF0.86467063426971436
aF0.093685895204544067
aF0.79951584339141846
aF0.87631744146347046
aF0.21767677366733551
aF0.86450576782226562
aF0.81899601221084595
aF0.61478573083877563
aF0.11663492023944855
aF0.96336108446121216
aF0.91451984643936157
aF0.46827778220176697
aF0.21127778291702271
aF0.0085405409336090088
aF0.62388348579406738
aF0.010750000365078449
aF0.29314899444580078
aF0.24603968858718872
aF0.87340295314788818
aF0.12157540023326874
aF0.76445239782333374
aF0.55504113435745239
aF0.15798412263393402
aF0.81571429967880249
aF0.91761112213134766
aF0.27672618627548218
aF0.95599997043609619
aF0.11435317248106003
aF0.69897621870040894
aF0.94434124231338501
aF0.98579764366149902
aF0.32383334636688232
aF0.95311111211776733
aF0.1077800914645195
aF0.34803572297096252
aF0.83919841051101685
aF0.50179904699325562
aF0.84534525871276855
aF0.33236905932426453
aF0.045942611992359161
aF0.14663888514041901
aF0.79961109161376953
aF0.80810928344726562
aF0.32850396633148193
aF0.030837301164865494
aF0.28296896815299988
aF0.16720634698867798
aF0.095019839704036713
aF0.89678823947906494
aF0.65176951885223389
aF0.083878912031650543
aF0.57429271936416626
aF0.17938491702079773
aF0.76235711574554443
aF0.70400792360305786
aF0.41200661659240723
aF0.93568253517150879
aF0.06704365462064743
aF0.92637556791305542
aF0.91771429777145386
aF0.62205952405929565
aF0.66438889503479004
aF0.92612695693969727
aF0.80050253868103027
aF0.95262700319290161
aF0.65004366636276245
aF0.082309521734714508
aF0.37926730513572693
aF0.033150795847177505
aF0.25001984834671021
aF0.83242857456207275
aF0.45543324947357178
aF0.11843446642160416
aF0.065999068319797516
aF0.39017856121063232
aF0.89013493061065674
aF0.80135500431060791
aF0.27666667103767395
aF0.48066666722297668
aF0.9253770112991333
aF0.96414285898208618
aF0.82693648338317871
aF0.10105952620506287
aF0.96773016452789307
aF0.95084524154663086
aF0.8694920539855957
aF0.71285319328308105
aF0.058046687394380569
aF0.075361110270023346
aF0.027396654710173607
aF0.18387699127197266
aF0.91092491149902344
aF0.94293254613876343
aF0.78966665267944336
aF0.15160317718982697
aF0.95114284753799438
aF0.91280412673950195
aF0.88377779722213745
aF0.90486109256744385
aF0.78068792819976807
aF0.096615083515644073
aF0.91255557537078857
aF0.065920636057853699
aF0.8224714994430542
aF0.89040595293045044
aF0.30000123381614685
aF0.93524205684661865
aF0.92030858993530273
aF0.90036112070083618
aF0.76373809576034546
aF0.80130553245544434
aF0.81936109066009521
aF0.59988492727279663
aF0.42619985342025757
aF0.93904763460159302
aF0.46122223138809204
aF0.93439465761184692
aF0.73852634429931641
aF0.86315333843231201
aF0.20280647277832031
aF0.87428969144821167
aF0.86186110973358154
aF0.25826984643936157
aF0.511821448802948
aF0.62768650054931641
aF0.04866931214928627
aF0.70615476369857788
aF0.7410198450088501
aF0.7161327600479126
aF0.28068253397941589
aF0.91137301921844482
aF0.66264283657073975
aF0.10393650829792023
aF0.84051191806793213
aF0.32573413848876953
aF0.22439286112785339
aF0.085178568959236145
aF0.5382658839225769
aF0.39471033215522766
aF0.95951187610626221
aF0.9726032018661499
aF0.4640829861164093
aF0.88553571701049805
aF0.83647835254669189
aF0.78994840383529663
aF0.81973016262054443
aF0.76758134365081787
aF0.090345241129398346
aF0.70251297950744629
aF0.98440277576446533
aF0.39346334338188171
aF0.70516663789749146
aF0.9826388955116272
aF0.15780952572822571
aF0.94791269302368164
aF0.78206747770309448
aF0.26109522581100464
aF0.68921828269958496
aF0.37760424613952637
aF0.076472222805023193
aF0.64649206399917603
aF0.45475396513938904
aF0.41573196649551392
aF0.13525794446468353
aF0.86066669225692749
aF0.95773231983184814
aF0.86393254995346069
aF0.82734918594360352
aF0.93360316753387451
aF0.67203569412231445
aF0.47085714340209961
aF0.91962701082229614
aF0.64081746339797974
aF0.15895634889602661
aF0.98274999856948853
aF0.91384124755859375
aF0.12100937962532043
aF0.32596680521965027
aF0.052916668355464935
aF0.5396111011505127
aF0.88746392726898193
aF0.88106745481491089
aF0.98755556344985962
aF0.85929042100906372
aF0.85901981592178345
aF0.42510569095611572
aF0.84977596998214722
aF0.9803650975227356
aF0.9548412561416626
aF0.14711111783981323
aF0.51863890886306763
aF0.57290911674499512
aF0.43206095695495605
aF0.021111112087965012
aF0.83698409795761108
aF0.020479988306760788
aF0.099369049072265625
aF0.92579764127731323
aF0.11415079236030579
aF0.81813490390777588
aF0.98571425676345825
aF0.95164936780929565
aF0.091507941484451294
aF0.86080950498580933
aF0.9869999885559082
aF0.0076038618572056293
aF0.9273611307144165
aF0.8675912618637085
aF0.97695237398147583
aF0.11248698085546494
aF0.90630155801773071
aF0.034384921193122864
aF0.77025395631790161
aF0.92628568410873413
aF0.27441629767417908
aF0.089540600776672363
aF0.042166668921709061
aF0.97203570604324341
aF0.10292063653469086
aF0.16348809003829956
aF0.93819838762283325
aF0.91163492202758789
aF0.80593252182006836
aF0.86445164680480957
aF0.54669338464736938
aF0.79458236694335938
aF0.69799208641052246
aF0.75860714912414551
aF0.86196428537368774
aF0.029452381655573845
aF0.83709776401519775
aF0.1252904087305069
aF0.96689283847808838
aF0.79616665840148926
aF0.7828214168548584
aF0.37042063474655151
aF0.15448810160160065
aF0.98100000619888306
aF0.5572618842124939
aF0.59418648481369019
aF0.13134127855300903
aF0.29970309138298035
aF0.049142859876155853
aF0.17445634305477142
aF0.45112013816833496
aF0.92724204063415527
aF0.80748414993286133
aF0.11188492178916931
aF0.71996825933456421
aF0.030635608360171318
aF0.079059526324272156
aF0.34336903691291809
aF0.053956348448991776
aF0.046896826475858688
aF0.91705161333084106
aF0.042706351727247238
aF0.91805160045623779
aF0.71867460012435913
aF0.97232145071029663
aF0.88236904144287109
aF0.96744441986083984
aF0.67223811149597168
aF0.091333337128162384
aF0.80551010370254517
aF0.090738095343112946
aF0.048897977918386459
aF0.4384177029132843
aF0.78991669416427612
aF0.12284523993730545
aF0.95090872049331665
aF0.96527379751205444
aF0.84193652868270874
aF0.97590476274490356
aF0.21085137128829956
aF0.94579362869262695
aF0.68411505222320557
aF0.42068865895271301
aF0.81959521770477295
aF0.071726188063621521
aF0.99433332681655884
aF0.94428175687789917
aF0.87853968143463135
aF0.030444445088505745
aF0.96971428394317627
aF0.29432827234268188
aF0.190992072224617
aF0.90398991107940674
aF0.76232540607452393
aF0.97708332538604736
aF0.74964284896850586
aF0.48631745576858521
aF0.82086509466171265
aF0.76821029186248779
aF0.87020236253738403
aF0.91012698411941528
aF0.92665404081344604
aF0.88243252038955688
aF0.95183330774307251
aF0.98376190662384033
aF0.92395240068435669
aF0.67631745338439941
aF0.088619045913219452
aF0.33145636320114136
aF0.73202705383300781
aF0.82063096761703491
aF0.52298629283905029
aF0.22440873086452484
aF0.97644442319869995
aF0.92786109447479248
aF0.1802142858505249
aF0.95360314846038818
aF0.99033331871032715
aF0.2893928587436676
aF0.075988098978996277
aF0.98073017597198486
aF0.28849762678146362
aF0.38307070732116699
aF0.47051984071731567
aF0.14323413372039795
aF0.47853174805641174
aF0.045466423034667969
aF0.37872219085693359
aF0.036095239222049713
aF0.97708332538604736
aF0.38534921407699585
aF0.96378570795059204
aF0.92847621440887451
aF0.1628359854221344
aF0.50288093090057373
aF0.8019942045211792
aF0.74007540941238403
aF0.83595633506774902
aF0.87415081262588501
aF0.83984923362731934
aF0.11491666734218597
aF0.058412697166204453
aF0.089900791645050049
aF0.93803173303604126
aF0.26820635795593262
aF0.77043795585632324
aF0.8390079140663147
aF0.86189287900924683
aF0.39252778887748718
aF0.85251551866531372
aF0.85167062282562256
aF0.98728573322296143
aF0.74174207448959351
aF0.52684593200683594
aF0.13768145442008972
aF0.910777747631073
aF0.35624602437019348
aF0.30276888608932495
aF0.76376986503601074
aF0.40639537572860718
aF0.054816849529743195
aF0.088626988232135773
aF0.093571431934833527
aF0.9870833158493042
aF0.72801190614700317
aF0.26956349611282349
aF0.85708731412887573
aF0.96066665649414062
aF0.91116666793823242
aF0.23367460072040558
aF0.99171429872512817
aF0.54422438144683838
aF0.93579763174057007
aF0.069460317492485046
aF0.13231277465820312
aF0.28914466500282288
aF0.11346248537302017
aF0.033785715699195862
aF0.14635317027568817
aF0.97080552577972412
aF0.92208510637283325
aF0.86467063426971436
aF0.093685895204544067
aF0.79951584339141846
aF0.87631744146347046
aF0.21767677366733551
aF0.86450576782226562
aF0.81899601221084595
aF0.61478573083877563
aF0.11663492023944855
aF0.96336108446121216
aF0.91451984643936157
aF0.46827778220176697
aF0.21127778291702271
aF0.0085405409336090088
aF0.62388348579406738
aF0.010750000365078449
aF0.29314899444580078
aF0.24603968858718872
aF0.87340295314788818
aF0.12157540023326874
aF0.76445239782333374
aF0.55504113435745239
aF0.15798412263393402
aF0.81571429967880249
aF0.91761112213134766
aF0.27672618627548218
aF0.95599997043609619
aF0.11435317248106003
aF0.69897621870040894
aF0.94434124231338501
aF0.98579764366149902
aF0.32383334636688232
aF0.95311111211776733
aF0.1077800914645195
aF0.34803572297096252
aF0.83919841051101685
aF0.50179904699325562
aF0.84534525871276855
aF0.33236905932426453
aF0.045942611992359161
aF0.14663888514041901
aF0.79961109161376953
aF0.80810928344726562
aF0.32850396633148193
aF0.030837301164865494
aF0.28296896815299988
aF0.16720634698867798
aF0.095019839704036713
aF0.89678823947906494
aF0.65176951885223389
aF0.083878912031650543
aF0.57429271936416626
aF0.17938491702079773
aF0.76235711574554443
aF0.70400792360305786
aF0.41200661659240723
aF0.93568253517150879
aF0.06704365462064743
aF0.92637556791305542
aF0.91771429777145386
aF0.62205952405929565
aF0.66438889503479004
aF0.92612695693969727
aF0.80050253868103027
aF0.95262700319290161
aF0.65004366636276245
aF0.082309521734714508
aF0.37926730513572693
aF0.033150795847177505
aF0.25001984834671021
aF0.83242857456207275
aF0.45543324947357178
aF0.11843446642160416
aF0.065999068319797516
aF0.39017856121063232
aF0.89013493061065674
aF0.80135500431060791
aF0.27666667103767395
aF0.48066666722297668
aF0.9253770112991333
aF0.96414285898208618
aF0.82693648338317871
aF0.10105952620506287
aF0.96773016452789307
aF0.95084524154663086
aF0.8694920539855957
aF0.71285319328308105
aF0.058046687394380569
aF0.075361110270023346
aF0.027396654710173607
aF0.18387699127197266
aF0.91092491149902344
aF0.94293254613876343
aF0.78966665267944336
aF0.15160317718982697
aF0.95114284753799438
aF0.91280412673950195
aF0.88377779722213745
aF0.90486109256744385
aF0.78068792819976807
aF0.096615083515644073
aF0.91255557537078857
aF0.065920636057853699
aF0.8224714994430542
aF0.89040595293045044
aF0.30000123381614685
aF0.93524205684661865
aF0.92030858993530273
aF0.90036112070083618
aF0.76373809576034546
aF0.80130553245544434
aF0.81936109066009521
aF0.59988492727279663
aF0.42619985342025757
aF0.93904763460159302
aF0.46122223138809204
aF0.93439465761184692
aF0.73852634429931641
aF0.86315333843231201
aF0.20280647277832031
aF0.87428969144821167
aF0.86186110973358154
aF0.25826984643936157
aF0.511821448802948
aF0.62768650054931641
aF0.04866931214928627
aF0.70615476369857788
aF0.7410198450088501
aF0.7161327600479126
aF0.28068253397941589
aF0.91137301921844482
aF0.66264283657073975
aF0.10393650829792023
aF0.84051191806793213
aF0.32573413848876953
aF0.22439286112785339
aF0.085178568959236145
aF0.5382658839225769
aF0.39471033215522766
aF0.95951187610626221
aF0.9726032018661499
aF0.4640829861164093
aF0.88553571701049805
aF0.83647835254669189
aF0.78994840383529663
aF0.81973016262054443
aF0.76758134365081787
aF0.090345241129398346
aF0.70251297950744629
aF0.98440277576446533
aF0.39346334338188171
aF0.70516663789749146
aF0.9826388955116272
aF0.15780952572822571
aF0.94791269302368164
aF0.78206747770309448
aF0.26109522581100464
aF0.68921828269958496
aF0.37760424613952637
aF0.076472222805023193
aF0.64649206399917603
aF0.45475396513938904
aF0.41573196649551392
aF0.13525794446468353
aF0.86066669225692749
aF0.95773231983184814
aF0.86393254995346069
aF0.82734918594360352
aF0.93360316753387451
aF0.67203569412231445
aF0.47085714340209961
aF0.91962701082229614
aF0.64081746339797974
aF0.15895634889602661
aF0.98274999856948853
aF0.91384124755859375
aF0.12100937962532043
aF0.32596680521965027
aF0.052916668355464935
aF0.5396111011505127
aF0.88746392726898193
aF0.88106745481491089
aF0.98755556344985962
aF0.85929042100906372
aF0.85901981592178345
aF0.42510569095611572
aF0.84977596998214722
aF0.9803650975227356
aF0.9548412561416626
aF0.14711111783981323
aF0.51863890886306763
aF0.57290911674499512
aF0.43206095695495605
aF0.021111112087965012
aF0.83698409795761108
aF0.020479988306760788
aF0.099369049072265625
aF0.92579764127731323
aF0.11415079236030579
aF0.81813490390777588
aF0.98571425676345825
aF0.95164936780929565
aF0.091507941484451294
aF0.86080950498580933
aF0.9869999885559082
aF0.0076038618572056293
aF0.9273611307144165
aF0.8675912618637085
aF0.97695237398147583
aF0.11248698085546494
aF0.90630155801773071
aF0.034384921193122864
aF0.77025395631790161
aF0.92628568410873413
aF0.27441629767417908
aF0.089540600776672363
aF0.042166668921709061
aF0.97203570604324341
aF0.10292063653469086
aF0.16348809003829956
aF0.93819838762283325
aF0.91163492202758789
aF0.80593252182006836
aF0.86445164680480957
aF0.54669338464736938
aF0.79458236694335938
aF0.69799208641052246
aF0.75860714912414551
aF0.86196428537368774
aF0.029452381655573845
aF0.83709776401519775
aF0.1252904087305069
aF0.96689283847808838
aF0.79616665840148926
aF0.7828214168548584
aF0.37042063474655151
aF0.15448810160160065
aF0.98100000619888306
aF0.5572618842124939
aF0.59418648481369019
aF0.13134127855300903
aF0.29970309138298035
aF0.049142859876155853
aF0.17445634305477142
aF0.45112013816833496
aF0.92724204063415527
aF0.80748414993286133
aF0.11188492178916931
aF0.71996825933456421
aF0.030635608360171318
aF0.079059526324272156
aF0.34336903691291809
aF0.053956348448991776
aF0.046896826475858688
aF0.91705161333084106
aF0.042706351727247238
aF0.91805160045623779
aF0.71867460012435913
aF0.97232145071029663
aF0.88236904144287109
aF0.96744441986083984
aF0.67223811149597168
aF0.091333337128162384
aF0.80551010370254517
aF0.090738095343112946
aF0.048897977918386459
aF0.4384177029132843
aF0.78991669416427612
aF0.12284523993730545
aF0.95090872049331665
aF0.96527379751205444
aF0.84193652868270874
aF0.97590476274490356
aF0.21085137128829956
aF0.94579362869262695
aF0.68411505222320557
aF0.42068865895271301
aF0.81959521770477295
aF0.071726188063621521
aF0.99433332681655884
aF0.94428175687789917
aF0.87853968143463135
aF0.030444445088505745
aF0.96971428394317627
aF0.29432827234268188
aF0.190992072224617
aF0.90398991107940674
aF0.76232540607452393
aF0.97708332538604736
aF0.74964284896850586
aF0.48631745576858521
aF0.82086509466171265
aF0.76821029186248779
aF0.87020236253738403
aF0.91012698411941528
aF0.92665404081344604
aF0.88243252038955688
aF0.95183330774307251
aF0.98376190662384033
aF0.92395240068435669
aF0.67631745338439941
aF0.088619045913219452
aF0.33145636320114136
aF0.73202705383300781
aF0.82063096761703491
aF0.52298629283905029
aF0.22440873086452484
aF0.97644442319869995
aF0.92786109447479248
aF0.1802142858505249
aF0.95360314846038818
aF0.99033331871032715
aF0.2893928587436676
aF0.075988098978996277
aF0.98073017597198486
aF0.28849762678146362
aF0.38307070732116699
aF0.47051984071731567
aF0.14323413372039795
aF0.47853174805641174
aF0.045466423034667969
aF0.37872219085693359
aF0.036095239222049713
aF0.97708332538604736
aF0.38534921407699585
aF0.96378570795059204
aF0.92847621440887451
aF0.1628359854221344
aF0.50288093090057373
aF0.8019942045211792
aF0.74007540941238403
aF0.83595633506774902
aF0.87415081262588501
aF0.83984923362731934
aF0.11491666734218597
aF0.058412697166204453
aF0.089900791645050049
aF0.93803173303604126
aF0.26820635795593262
aF0.77043795585632324
aF0.8390079140663147
aF0.86189287900924683
aF0.39252778887748718
aF0.85251551866531372
aF0.85167062282562256
aF0.98728573322296143
aF0.74174207448959351
aF0.52684593200683594
aF0.13768145442008972
aF0.910777747631073
aF0.35624602437019348
aF0.30276888608932495
aF0.76376986503601074
aF0.40639537572860718
aF0.054816849529743195
aF0.088626988232135773
aF0.093571431934833527
aF0.9870833158493042
aF0.72801190614700317
aF0.26956349611282349
aF0.85708731412887573
aF0.96066665649414062
aF0.91116666793823242
aF0.23367460072040558
aF0.99171429872512817
aF0.54422438144683838
aF0.93579763174057007
aF0.069460317492485046
aF0.13231277465820312
aF0.28914466500282288
aF0.11346248537302017
aF0.033785715699195862
aF0.14635317027568817
aF0.97080552577972412
aF0.92208510637283325
aF0.86467063426971436
aF0.093685895204544067
aF0.79951584339141846
aF0.87631744146347046
aF0.21767677366733551
aF0.86450576782226562
aF0.81899601221084595
aF0.61478573083877563
aF0.11663492023944855
aF0.96336108446121216
aF0.91451984643936157
aF0.46827778220176697
aF0.21127778291702271
aF0.0085405409336090088
aF0.62388348579406738
aF0.010750000365078449
aF0.29314899444580078
aF0.24603968858718872
aF0.87340295314788818
aF0.12157540023326874
aF0.76445239782333374
aF0.55504113435745239
aF0.15798412263393402
aF0.81571429967880249
aF0.91761112213134766
aF0.27672618627548218
aF0.95599997043609619
aF0.11435317248106003
aF0.69897621870040894
aF0.94434124231338501
aF0.98579764366149902
aF0.32383334636688232
aF0.95311111211776733
aF0.1077800914645195
aF0.34803572297096252
aF0.83919841051101685
aF0.50179904699325562
aF0.84534525871276855
aF0.33236905932426453
aF0.045942611992359161
aF0.14663888514041901
aF0.79961109161376953
aF0.80810928344726562
aF0.32850396633148193
aF0.030837301164865494
aF0.28296896815299988
aF0.16720634698867798
aF0.095019839704036713
aF0.89678823947906494
aF0.65176951885223389
aF0.083878912031650543
aF0.57429271936416626
aF0.17938491702079773
aF0.76235711574554443
aF0.70400792360305786
aF0.41200661659240723
aF0.93568253517150879
aF0.06704365462064743
aF0.92637556791305542
aF0.91771429777145386
aF0.62205952405929565
aF0.66438889503479004
aF0.92612695693969727
aF0.80050253868103027
aF0.95262700319290161
aF0.65004366636276245
aF0.082309521734714508
aF0.37926730513572693
aF0.033150795847177505
aF0.25001984834671021
aF0.83242857456207275
aF0.45543324947357178
aF0.11843446642160416
aF0.065999068319797516
aF0.39017856121063232
aF0.89013493061065674
aF0.80135500431060791
aF0.27666667103767395
aF0.48066666722297668
aF0.9253770112991333
aF0.96414285898208618
aF0.82693648338317871
aF0.10105952620506287
aF0.96773016452789307
aF0.95084524154663086
aF0.8694920539855957
aF0.71285319328308105
aF0.058046687394380569
aF0.075361110270023346
aF0.027396654710173607
aF0.18387699127197266
aF0.91092491149902344
aF0.94293254613876343
aF0.78966665267944336
aF0.15160317718982697
aF0.95114284753799438
aF0.91280412673950195
aF0.88377779722213745
aF0.90486109256744385
aF0.78068792819976807
aF0.096615083515644073
aF0.91255557537078857
aF0.065920636057853699
aF0.8224714994430542
aF0.89040595293045044
aF0.30000123381614685
aF0.93524205684661865
aF0.92030858993530273
aF0.90036112070083618
aF0.76373809576034546
aF0.80130553245544434
aF0.81936109066009521
aF0.59988492727279663
aF0.42619985342025757
aF0.93904763460159302
aF0.46122223138809204
aF0.93439465761184692
aF0.73852634429931641
aF0.86315333843231201
aF0.20280647277832031
aF0.87428969144821167
aF0.86186110973358154
aF0.25826984643936157
aF0.511821448802948
aF0.62768650054931641
aF0.04866931214928627
aF0.70615476369857788
aF0.7410198450088501
aF0.7161327600479126
aF0.28068253397941589
aF0.91137301921844482
aF0.66264283657073975
aF0.10393650829792023
aF0.84051191806793213
aF0.32573413848876953
aF0.22439286112785339
aF0.085178568959236145
aF0.5382658839225769
aF0.39471033215522766
aF0.95951187610626221
aF0.9726032018661499
aF0.4640829861164093
aF0.88553571701049805
aF0.83647835254669189
aF0.78994840383529663
aF0.81973016262054443
aF0.76758134365081787
aF0.090345241129398346
aF0.70251297950744629
aF0.98440277576446533
aF0.39346334338188171
aF0.70516663789749146
aF0.9826388955116272
aF0.15780952572822571
aF0.94791269302368164
aF0.78206747770309448
aF0.26109522581100464
aF0.68921828269958496
aF0.37760424613952637
aF0.076472222805023193
aF0.64649206399917603
aF0.45475396513938904
aF0.41573196649551392
aF0.13525794446468353
aF0.86066669225692749
aF0.95773231983184814
aF0.86393254995346069
aF0.82734918594360352
aF0.93360316753387451
aF0.67203569412231445
aF0.47085714340209961
aF0.91962701082229614
aF0.64081746339797974
aF0.15895634889602661
aF0.98274999856948853
aF0.91384124755859375
aF0.12100937962532043
aF0.32596680521965027
aF0.052916668355464935
aF0.5396111011505127
aF0.88746392726898193
aF0.88106745481491089
aF0.98755556344985962
aF0.85929042100906372
aF0.85901981592178345
aF0.42510569095611572
aF0.84977596998214722
aF0.9803650975227356
aF0.9548412561416626
aF0.14711111783981323
aF0.51863890886306763
aF0.57290911674499512
aF0.43206095695495605
aF0.021111112087965012
aF0.83698409795761108
aF0.020479988306760788
aF0.099369049072265625
aF0.92579764127731323
aF0.11415079236030579
aF0.81813490390777588
aF0.98571425676345825
aF0.95164936780929565
aF0.091507941484451294
aF0.86080950498580933
aF0.9869999885559082
aF0.0076038618572056293
aF0.9273611307144165
aF0.8675912618637085
aF0.97695237398147583
aF0.11248698085546494
aF0.90630155801773071
aF0.034384921193122864
aF0.77025395631790161
aF0.92628568410873413
aF0.27441629767417908
aF0.089540600776672363
aF0.042166668921709061
aF0.97203570604324341
aF0.10292063653469086
aF0.16348809003829956
aF0.93819838762283325
aF0.91163492202758789
aF0.80593252182006836
aF0.86445164680480957
aF0.54669338464736938
aF0.79458236694335938
aF0.69799208641052246
aF0.75860714912414551
aF0.86196428537368774
aF0.029452381655573845
aF0.83709776401519775
aF0.1252904087305069
aF0.96689283847808838
aF0.79616665840148926
aF0.7828214168548584
aF0.37042063474655151
aF0.15448810160160065
aF0.98100000619888306
aF0.5572618842124939
aF0.59418648481369019
aF0.13134127855300903
aF0.29970309138298035
aF0.049142859876155853
aF0.17445634305477142
aF0.45112013816833496
aF0.92724204063415527
aF0.80748414993286133
aF0.11188492178916931
aF0.71996825933456421
aF0.030635608360171318
aF0.079059526324272156
aF0.34336903691291809
aF0.053956348448991776
aF0.046896826475858688
aF0.91705161333084106
aF0.042706351727247238
aF0.91805160045623779
aF0.71867460012435913
aF0.97232145071029663
aF0.88236904144287109
aF0.96744441986083984
aF0.67223811149597168
aF0.091333337128162384
aF0.80551010370254517
aF0.090738095343112946
aF0.048897977918386459
aF0.4384177029132843
aF0.78991669416427612
aF0.12284523993730545
aF0.95090872049331665
aF0.96527379751205444
aF0.84193652868270874
aF0.97590476274490356
aF0.21085137128829956
aF0.94579362869262695
aF0.68411505222320557
aF0.42068865895271301
aF0.81959521770477295
aF0.071726188063621521
aF0.99433332681655884
aF0.94428175687789917
aF0.87853968143463135
aF0.030444445088505745
aF0.96971428394317627
aF0.29432827234268188
aF0.190992072224617
aF0.90398991107940674
aF0.76232540607452393
aF0.97708332538604736
aF0.74964284896850586
aF0.48631745576858521
aF0.82086509466171265
aF0.76821029186248779
aF0.87020236253738403
aF0.91012698411941528
aF0.92665404081344604
aF0.88243252038955688
aF0.95183330774307251
aF0.98376190662384033
aF0.92395240068435669
aF0.67631745338439941
aF0.088619045913219452
aF0.33145636320114136
aF0.73202705383300781
aF0.82063096761703491
aF0.52298629283905029
aF0.22440873086452484
aF0.97644442319869995
aF0.92786109447479248
aF0.1802142858505249
aF0.95360314846038818
aF0.99033331871032715
aF0.2893928587436676
aF0.075988098978996277
aF0.98073017597198486
aF0.28849762678146362
aF0.38307070732116699
aF0.47051984071731567
aF0.14323413372039795
aF0.47853174805641174
aF0.045466423034667969
aF0.37872219085693359
aF0.036095239222049713
aF0.97708332538604736
aF0.38534921407699585
aF0.96378570795059204
aF0.92847621440887451
aF0.1628359854221344
aF0.50288093090057373
aF0.8019942045211792
aF0.74007540941238403
aF0.83595633506774902
aF0.87415081262588501
aF0.83984923362731934
aF0.11491666734218597
aF0.058412697166204453
aF0.089900791645050049
aF0.93803173303604126
aF0.26820635795593262
aF0.77043795585632324
aF0.8390079140663147
aF0.86189287900924683
aF0.39252778887748718
aF0.85251551866531372
aF0.85167062282562256
aF0.98728573322296143
aF0.74174207448959351
aF0.52684593200683594
aF0.13768145442008972
aF0.910777747631073
aF0.35624602437019348
aF0.30276888608932495
aF0.76376986503601074
aF0.40639537572860718
aF0.054816849529743195
aF0.088626988232135773
aF0.093571431934833527
aF0.9870833158493042
aF0.72801190614700317
aF0.26956349611282349
aF0.85708731412887573
aF0.96066665649414062
aF0.91116666793823242
aF0.23367460072040558
aF0.99171429872512817
aF0.54422438144683838
aF0.93579763174057007
aF0.069460317492485046
aF0.13231277465820312
aF0.28914466500282288
aF0.11346248537302017
aF0.033785715699195862
aF0.14635317027568817
aF0.97080552577972412
aF0.92208510637283325
aF0.86467063426971436
aF0.093685895204544067
aF0.79951584339141846
aF0.87631744146347046
aF0.21767677366733551
aF0.86450576782226562
aF0.81899601221084595
aF0.61478573083877563
aF0.11663492023944855
aF0.96336108446121216
aF0.91451984643936157
aF0.46827778220176697
aF0.21127778291702271
aF0.0085405409336090088
aF0.62388348579406738
aF0.010750000365078449
aF0.29314899444580078
aF0.24603968858718872
aF0.87340295314788818
aF0.12157540023326874
aF0.76445239782333374
aF0.55504113435745239
aF0.15798412263393402
aF0.81571429967880249
aF0.91761112213134766
aF0.27672618627548218
aF0.95599997043609619
aF0.11435317248106003
aF0.69897621870040894
aF0.94434124231338501
aF0.98579764366149902
aF0.32383334636688232
aF0.95311111211776733
aF0.1077800914645195
aF0.34803572297096252
aF0.83919841051101685
aF0.50179904699325562
aF0.84534525871276855
aF0.33236905932426453
aF0.045942611992359161
aF0.14663888514041901
aF0.79961109161376953
aF0.80810928344726562
aF0.32850396633148193
aF0.030837301164865494
aF0.28296896815299988
aF0.16720634698867798
aF0.095019839704036713
aF0.89678823947906494
aF0.65176951885223389
aF0.083878912031650543
aF0.57429271936416626
aF0.17938491702079773
aF0.76235711574554443
aF0.70400792360305786
aF0.41200661659240723
aF0.93568253517150879
aF0.06704365462064743
aF0.92637556791305542
aF0.91771429777145386
aF0.62205952405929565
aF0.66438889503479004
aF0.92612695693969727
aF0.80050253868103027
aF0.95262700319290161
aF0.65004366636276245
aF0.082309521734714508
aF0.37926730513572693
aF0.033150795847177505
aF0.25001984834671021
aF0.83242857456207275
aF0.45543324947357178
aF0.11843446642160416
aF0.065999068319797516
aF0.39017856121063232
aF0.89013493061065674
aF0.80135500431060791
aF0.27666667103767395
aF0.48066666722297668
aF0.9253770112991333
aF0.96414285898208618
aF0.82693648338317871
aF0.10105952620506287
aF0.96773016452789307
aF0.95084524154663086
aF0.8694920539855957
aF0.71285319328308105
aF0.058046687394380569
aF0.075361110270023346
aF0.027396654710173607
aF0.18387699127197266
aF0.91092491149902344
aF0.94293254613876343
aF0.78966665267944336
aF0.15160317718982697
aF0.95114284753799438
aF0.91280412673950195
aF0.88377779722213745
aF0.90486109256744385
aF0.78068792819976807
aF0.096615083515644073
aF0.91255557537078857
aF0.065920636057853699
aF0.8224714994430542
aF0.89040595293045044
aF0.30000123381614685
aF0.93524205684661865
aF0.92030858993530273
aF0.90036112070083618
aF0.76373809576034546
aF0.80130553245544434
aF0.81936109066009521
aF0.59988492727279663
aF0.42619985342025757
aF0.93904763460159302
aF0.46122223138809204
aF0.93439465761184692
aF0.73852634429931641
aF0.86315333843231201
aF0.20280647277832031
aF0.87428969144821167
aF0.86186110973358154
aF0.25826984643936157
aF0.511821448802948
aF0.62768650054931641
aF0.04866931214928627
aF0.70615476369857788
aF0.7410198450088501
aF0.7161327600479126
aF0.28068253397941589
aF0.91137301921844482
aF0.66264283657073975
aF0.10393650829792023
aF0.84051191806793213
aF0.32573413848876953
aF0.22439286112785339
aF0.085178568959236145
aF0.5382658839225769
aF0.39471033215522766
aF0.95951187610626221
aF0.9726032018661499
aF0.4640829861164093
aF0.88553571701049805
aF0.83647835254669189
aF0.78994840383529663
aF0.81973016262054443
aF0.76758134365081787
aF0.090345241129398346
aF0.70251297950744629
aF0.98440277576446533
aF0.39346334338188171
aF0.70516663789749146
aF0.9826388955116272
aF0.15780952572822571
aF0.94791269302368164
aF0.78206747770309448
aF0.26109522581100464
aF0.68921828269958496
aF0.37760424613952637
aF0.076472222805023193
aF0.64649206399917603
aF0.45475396513938904
aF0.41573196649551392
aF0.13525794446468353
aF0.86066669225692749
aF0.95773231983184814
aF0.86393254995346069
aF0.82734918594360352
aF0.93360316753387451
aF0.67203569412231445
aF0.47085714340209961
aF0.91962701082229614
aF0.64081746339797974
aF0.15895634889602661
aF0.98274999856948853
aF0.91384124755859375
aF0.12100937962532043
aF0.32596680521965027
aF0.052916668355464935
aF0.5396111011505127
aF0.88746392726898193
aF0.88106745481491089
aF0.98755556344985962
aF0.85929042100906372
aF0.85901981592178345
aF0.42510569095611572
aF0.84977596998214722
aF0.9803650975227356
aF0.9548412561416626
aF0.14711111783981323
aF0.51863890886306763
aF0.57290911674499512
aF0.43206095695495605
aF0.021111112087965012
aF0.83698409795761108
aF0.020479988306760788
aF0.099369049072265625
aF0.92579764127731323
aF0.11415079236030579
aF0.81813490390777588
aF0.98571425676345825
aF0.95164936780929565
aF0.091507941484451294
aF0.86080950498580933
aF0.9869999885559082
aF0.0076038618572056293
aF0.9273611307144165
aF0.8675912618637085
aF0.97695237398147583
aF0.11248698085546494
aF0.90630155801773071
aF0.034384921193122864
aF0.77025395631790161
aF0.92628568410873413
aF0.27441629767417908
aF0.089540600776672363
aF0.042166668921709061
aF0.97203570604324341
aF0.10292063653469086
aF0.16348809003829956
aF0.93819838762283325
aF0.91163492202758789
aF0.80593252182006836
aF0.86445164680480957
aF0.54669338464736938
aF0.79458236694335938
aF0.69799208641052246
aF0.75860714912414551
aF0.86196428537368774
aF0.029452381655573845
aF0.83709776401519775
aF0.1252904087305069
aF0.96689283847808838
aF0.79616665840148926
aF0.7828214168548584
aF0.37042063474655151
aF0.15448810160160065
aF0.98100000619888306
aF0.5572618842124939
aF0.59418648481369019
aF0.13134127855300903
aF0.29970309138298035
aF0.049142859876155853
aF0.17445634305477142
aF0.45112013816833496
aF0.92724204063415527
aF0.80748414993286133
aF0.11188492178916931
aF0.71996825933456421
aF0.030635608360171318
aF0.079059526324272156
aF0.34336903691291809
aF0.053956348448991776
aF0.046896826475858688
aF0.91705161333084106
aF0.042706351727247238
aF0.91805160045623779
aF0.71867460012435913
aF0.97232145071029663
aF0.88236904144287109
aF0.96744441986083984
aF0.67223811149597168
aF0.091333337128162384
aF0.80551010370254517
aF0.090738095343112946
aF0.048897977918386459
aF0.4384177029132843
aF0.78991669416427612
aF0.12284523993730545
aF0.95090872049331665
aF0.96527379751205444
aF0.84193652868270874
aF0.97590476274490356
aF0.21085137128829956
aF0.94579362869262695
aF0.68411505222320557
aF0.42068865895271301
aF0.81959521770477295
aF0.071726188063621521
aF0.99433332681655884
aF0.94428175687789917
aF0.87853968143463135
aF0.030444445088505745
aF0.96971428394317627
aF0.29432827234268188
aF0.190992072224617
aF0.90398991107940674
aF0.76232540607452393
aF0.97708332538604736
aF0.74964284896850586
aF0.48631745576858521
aF0.82086509466171265
aF0.76821029186248779
aF0.87020236253738403
aF0.91012698411941528
aF0.92665404081344604
aF0.88243252038955688
aF0.95183330774307251
aF0.98376190662384033
aF0.92395240068435669
aF0.67631745338439941
aF0.088619045913219452
aF0.33145636320114136
aF0.73202705383300781
aF0.82063096761703491
aF0.52298629283905029
aF0.22440873086452484
aF0.97644442319869995
aF0.92786109447479248
aF0.1802142858505249
aF0.95360314846038818
aF0.99033331871032715
aF0.2893928587436676
aF0.075988098978996277
aF0.98073017597198486
aF0.28849762678146362
aF0.38307070732116699
aF0.47051984071731567
aF0.14323413372039795
aF0.47853174805641174
aF0.045466423034667969
aF0.37872219085693359
aF0.036095239222049713
aF0.97708332538604736
aF0.38534921407699585
aF0.96378570795059204
aF0.92847621440887451
aF0.1628359854221344
aF0.50288093090057373
aF0.8019942045211792
aF0.74007540941238403
aF0.83595633506774902
aF0.87415081262588501
aF0.83984923362731934
aF0.11491666734218597
aF0.058412697166204453
aF0.089900791645050049
aF0.93803173303604126
aF0.26820635795593262
aF0.77043795585632324
aF0.8390079140663147
aF0.86189287900924683
aF0.39252778887748718
aF0.85251551866531372
aF0.85167062282562256
aF0.98728573322296143
aF0.74174207448959351
aF0.52684593200683594
aF0.13768145442008972
aF0.910777747631073
aF0.35624602437019348
aF0.30276888608932495
aF0.76376986503601074
aF0.40639537572860718
aF0.054816849529743195
aF0.088626988232135773
aF0.093571431934833527
aF0.9870833158493042
aF0.72801190614700317
aF0.26956349611282349
aF0.85708731412887573
aF0.96066665649414062
aF0.91116666793823242
aF0.23367460072040558
aF0.99171429872512817
aF0.54422438144683838
aF0.93579763174057007
aF0.069460317492485046
aF0.13231277465820312
aF0.28914466500282288
aF0.11346248537302017
aF0.033785715699195862
aF0.14635317027568817
aF0.97080552577972412
aF0.92208510637283325
aF0.86467063426971436
aF0.093685895204544067
aF0.79951584339141846
aF0.87631744146347046
aF0.21767677366733551
aF0.86450576782226562
aF0.81899601221084595
aF0.61478573083877563
aF0.11663492023944855
aF0.96336108446121216
aF0.91451984643936157
aF0.46827778220176697
aF0.21127778291702271
aF0.0085405409336090088
aF0.62388348579406738
aF0.010750000365078449
aF0.29314899444580078
aF0.24603968858718872
aF0.87340295314788818
aF0.12157540023326874
aF0.76445239782333374
aF0.55504113435745239
aF0.15798412263393402
aF0.81571429967880249
aF0.91761112213134766
aF0.27672618627548218
aF0.95599997043609619
aF0.11435317248106003
aF0.69897621870040894
aF0.94434124231338501
aF0.98579764366149902
aF0.32383334636688232
aF0.95311111211776733
aF0.1077800914645195
aF0.34803572297096252
aF0.83919841051101685
aF0.50179904699325562
aF0.84534525871276855
aF0.33236905932426453
aF0.045942611992359161
aF0.14663888514041901
aF0.79961109161376953
aF0.80810928344726562
aF0.32850396633148193
aF0.030837301164865494
aF0.28296896815299988
aF0.16720634698867798
aF0.095019839704036713
aF0.89678823947906494
aF0.65176951885223389
aF0.083878912031650543
aF0.57429271936416626
aF0.17938491702079773
aF0.76235711574554443
aF0.70400792360305786
aF0.41200661659240723
aF0.93568253517150879
aF0.06704365462064743
aF0.92637556791305542
aF0.91771429777145386
aF0.62205952405929565
aF0.66438889503479004
aF0.92612695693969727
aF0.80050253868103027
aF0.95262700319290161
aF0.65004366636276245
aF0.082309521734714508
aF0.37926730513572693
aF0.033150795847177505
aF0.25001984834671021
aF0.83242857456207275
aF0.45543324947357178
aF0.11843446642160416
aF0.065999068319797516
aF0.39017856121063232
aF0.89013493061065674
aF0.80135500431060791
aF0.27666667103767395
aF0.48066666722297668
aF0.9253770112991333
aF0.96414285898208618
aF0.82693648338317871
aF0.10105952620506287
aF0.96773016452789307
aF0.95084524154663086
aF0.8694920539855957
aF0.71285319328308105
aF0.058046687394380569
aF0.075361110270023346
aF0.027396654710173607
aF0.18387699127197266
aF0.91092491149902344
aF0.94293254613876343
aF0.78966665267944336
aF0.15160317718982697
aF0.95114284753799438
aF0.91280412673950195
aF0.88377779722213745
aF0.90486109256744385
aF0.78068792819976807
aF0.096615083515644073
aF0.91255557537078857
aF0.065920636057853699
aF0.8224714994430542
aF0.89040595293045044
aF0.30000123381614685
aF0.93524205684661865
aF0.92030858993530273
aF0.90036112070083618
aF0.76373809576034546
aF0.80130553245544434
aF0.81936109066009521
aF0.59988492727279663
aF0.42619985342025757
aF0.93904763460159302
aF0.46122223138809204
aF0.93439465761184692
aF0.73852634429931641
aF0.86315333843231201
aF0.20280647277832031
aF0.87428969144821167
aF0.86186110973358154
aF0.25826984643936157
aF0.511821448802948
aF0.62768650054931641
aF0.04866931214928627
aF0.70615476369857788
aF0.7410198450088501
aF0.7161327600479126
aF0.28068253397941589
aF0.91137301921844482
aF0.66264283657073975
aF0.10393650829792023
aF0.84051191806793213
aF0.32573413848876953
aF0.22439286112785339
aF0.085178568959236145
aF0.5382658839225769
aF0.39471033215522766
aF0.95951187610626221
aF0.9726032018661499
aF0.4640829861164093
aF0.88553571701049805
aF0.83647835254669189
aF0.78994840383529663
aF0.81973016262054443
aF0.76758134365081787
aF0.090345241129398346
aF0.70251297950744629
aF0.98440277576446533
aF0.39346334338188171
aF0.70516663789749146
aF0.9826388955116272
aF0.15780952572822571
aF0.94791269302368164
aF0.78206747770309448
aF0.26109522581100464
aF0.68921828269958496
aF0.37760424613952637
aF0.076472222805023193
aF0.64649206399917603
aF0.45475396513938904
aF0.41573196649551392
aF0.13525794446468353
aF0.86066669225692749
aF0.95773231983184814
aF0.86393254995346069
aF0.82734918594360352
aF0.93360316753387451
aF0.67203569412231445
aF0.47085714340209961
aF0.91962701082229614
aF0.64081746339797974
aF0.15895634889602661
aF0.98274999856948853
aF0.91384124755859375
aF0.12100937962532043
aF0.32596680521965027
aF0.052916668355464935
aF0.5396111011505127
aF0.88746392726898193
aF0.88106745481491089
aF0.98755556344985962
aF0.85929042100906372
aF0.85901981592178345
aF0.42510569095611572
aF0.84977596998214722
aF0.9803650975227356
aF0.9548412561416626
aF0.14711111783981323
aF0.51863890886306763
aF0.57290911674499512
aF0.43206095695495605
aF0.021111112087965012
aF0.83698409795761108
aF0.020479988306760788
aF0.099369049072265625
aF0.92579764127731323
aF0.11415079236030579
aF0.81813490390777588
aF0.98571425676345825
aF0.95164936780929565
aF0.091507941484451294
aF0.86080950498580933
aF0.9869999885559082
aF0.0076038618572056293
aF0.9273611307144165
aF0.8675912618637085
aF0.97695237398147583
aF0.11248698085546494
aF0.90630155801773071
aF0.034384921193122864
aF0.77025395631790161
aF0.92628568410873413
aF0.27441629767417908
aF0.089540600776672363
aF0.042166668921709061
aF0.97203570604324341
aF0.10292063653469086
aF0.16348809003829956
aF0.93819838762283325
aF0.91163492202758789
aF0.80593252182006836
aF0.86445164680480957
aF0.54669338464736938
aF0.79458236694335938
aF0.69799208641052246
aF0.75860714912414551
aF0.86196428537368774
aF0.029452381655573845
aF0.83709776401519775
aF0.1252904087305069
aF0.96689283847808838
aF0.79616665840148926
aF0.7828214168548584
aF0.37042063474655151
aF0.15448810160160065
aF0.98100000619888306
aF0.5572618842124939
aF0.59418648481369019
aF0.13134127855300903
aF0.29970309138298035
aF0.049142859876155853
aF0.17445634305477142
aF0.45112013816833496
aF0.92724204063415527
aF0.80748414993286133
aF0.11188492178916931
aF0.71996825933456421
aF0.030635608360171318
aF0.079059526324272156
aF0.34336903691291809
aF0.053956348448991776
aF0.046896826475858688
aF0.91705161333084106
aF0.042706351727247238
aF0.91805160045623779
aF0.71867460012435913
aF0.97232145071029663
aF0.88236904144287109
aF0.96744441986083984
aF0.67223811149597168
aF0.091333337128162384
aF0.80551010370254517
aF0.090738095343112946
aF0.048897977918386459
aF0.4384177029132843
aF0.78991669416427612
aF0.12284523993730545
aF0.95090872049331665
aF0.96527379751205444
aF0.84193652868270874
aF0.97590476274490356
aF0.21085137128829956
aF0.94579362869262695
aF0.68411505222320557
aF0.42068865895271301
aF0.81959521770477295
aF0.071726188063621521
aF0.99433332681655884
aF0.94428175687789917
aF0.87853968143463135
aF0.030444445088505745
aF0.96971428394317627
aF0.29432827234268188
aF0.190992072224617
aF0.90398991107940674
aF0.76232540607452393
aF0.97708332538604736
aF0.74964284896850586
aF0.48631745576858521
aF0.82086509466171265
aF0.76821029186248779
aF0.87020236253738403
aF0.91012698411941528
aF0.92665404081344604
aF0.88243252038955688
aF0.95183330774307251
aF0.98376190662384033
aF0.92395240068435669
aF0.67631745338439941
aF0.088619045913219452
aF0.33145636320114136
aF0.73202705383300781
aF0.82063096761703491
aF0.52298629283905029
aF0.22440873086452484
aF0.97644442319869995
aF0.92786109447479248
aF0.1802142858505249
aF0.95360314846038818
aF0.99033331871032715
aF0.2893928587436676
aF0.075988098978996277
aF0.98073017597198486
aF0.28849762678146362
aF0.38307070732116699
aF0.47051984071731567
aF0.14323413372039795
aF0.47853174805641174
aF0.045466423034667969
aF0.37872219085693359
aF0.036095239222049713
aF0.97708332538604736
aF0.38534921407699585
aF0.96378570795059204
aF0.92847621440887451
aF0.1628359854221344
aF0.50288093090057373
aF0.8019942045211792
aF0.74007540941238403
aF0.83595633506774902
aF0.87415081262588501
aF0.83984923362731934
aF0.11491666734218597
aF0.058412697166204453
aF0.089900791645050049
aF0.93803173303604126
aF0.26820635795593262
aF0.77043795585632324
aF0.8390079140663147
aF0.86189287900924683
aF0.39252778887748718
aF0.85251551866531372
aF0.85167062282562256
aF0.98728573322296143
aF0.74174207448959351
aF0.52684593200683594
aF0.13768145442008972
aF0.910777747631073
aF0.35624602437019348
aF0.30276888608932495
aF0.76376986503601074
aF0.40639537572860718
aF0.054816849529743195
aF0.088626988232135773
aF0.093571431934833527
aF0.9870833158493042
aF0.72801190614700317
aF0.26956349611282349
aF0.85708731412887573
aF0.96066665649414062
aF0.91116666793823242
aF0.23367460072040558
aF0.99171429872512817
aF0.54422438144683838
aF0.93579763174057007
aF0.069460317492485046
aF0.13231277465820312
aF0.28914466500282288
aF0.11346248537302017
aF0.033785715699195862
aF0.14635317027568817
aF0.97080552577972412
aF0.92208510637283325
aF0.86467063426971436
aF0.093685895204544067
aF0.79951584339141846
aF0.87631744146347046
aF0.21767677366733551
aF0.86450576782226562
aF0.81899601221084595
aF0.61478573083877563
aF0.11663492023944855
aF0.96336108446121216
aF0.91451984643936157
aF0.46827778220176697
aF0.21127778291702271
aF0.0085405409336090088
aF0.62388348579406738
aF0.010750000365078449
aF0.29314899444580078
aF0.24603968858718872
aF0.87340295314788818
aF0.12157540023326874
aF0.76445239782333374
aF0.55504113435745239
aF0.15798412263393402
aF0.81571429967880249
aF0.91761112213134766
aF0.27672618627548218
aF0.95599997043609619
aF0.11435317248106003
aF0.69897621870040894
aF0.94434124231338501
aF0.98579764366149902
aF0.32383334636688232
aF0.95311111211776733
aF0.1077800914645195
aF0.34803572297096252
aF0.83919841051101685
aF0.50179904699325562
aF0.84534525871276855
aF0.33236905932426453
aF0.045942611992359161
aF0.14663888514041901
aF0.79961109161376953
aF0.80810928344726562
aF0.32850396633148193
aF0.030837301164865494
aF0.28296896815299988
aF0.16720634698867798
aF0.095019839704036713
aF0.89678823947906494
aF0.65176951885223389
aF0.083878912031650543
aF0.57429271936416626
aF0.17938491702079773
aF0.76235711574554443
aF0.70400792360305786
aF0.41200661659240723
aF0.93568253517150879
aF0.06704365462064743
aF0.92637556791305542
aF0.91771429777145386
aF0.62205952405929565
aF0.66438889503479004
aF0.92612695693969727
aF0.80050253868103027
aF0.95262700319290161
aF0.65004366636276245
aF0.082309521734714508
aF0.37926730513572693
aF0.033150795847177505
aF0.25001984834671021
aF0.83242857456207275
aF0.45543324947357178
aF0.11843446642160416
aF0.065999068319797516
aF0.39017856121063232
aF0.89013493061065674
aF0.80135500431060791
aF0.27666667103767395
aF0.48066666722297668
aF0.9253770112991333
aF0.96414285898208618
aF0.82693648338317871
aF0.10105952620506287
aF0.96773016452789307
aF0.95084524154663086
aF0.8694920539855957
aF0.71285319328308105
aF0.058046687394380569
aF0.075361110270023346
aF0.027396654710173607
aF0.18387699127197266
aF0.91092491149902344
aF0.94293254613876343
aF0.78966665267944336
aF0.15160317718982697
aF0.95114284753799438
aF0.91280412673950195
aF0.88377779722213745
aF0.90486109256744385
aF0.78068792819976807
aF0.096615083515644073
aF0.91255557537078857
aF0.065920636057853699
aF0.8224714994430542
aF0.89040595293045044
aF0.30000123381614685
aF0.93524205684661865
aF0.92030858993530273
aF0.90036112070083618
aF0.76373809576034546
aF0.80130553245544434
aF0.81936109066009521
aF0.59988492727279663
aF0.42619985342025757
aF0.93904763460159302
aF0.46122223138809204
aF0.93439465761184692
aF0.73852634429931641
aF0.86315333843231201
aF0.20280647277832031
aF0.87428969144821167
aF0.86186110973358154
aF0.25826984643936157
aF0.511821448802948
aF0.62768650054931641
aF0.04866931214928627
aF0.70615476369857788
aF0.7410198450088501
aF0.7161327600479126
aF0.28068253397941589
aF0.91137301921844482
aF0.66264283657073975
aF0.10393650829792023
aF0.84051191806793213
aF0.32573413848876953
aF0.22439286112785339
aF0.085178568959236145
aF0.5382658839225769
aF0.39471033215522766
aF0.95951187610626221
aF0.9726032018661499
aF0.4640829861164093
aF0.88553571701049805
aF0.83647835254669189
aF0.78994840383529663
aF0.81973016262054443
aF0.76758134365081787
aF0.090345241129398346
aF0.70251297950744629
aF0.98440277576446533
aF0.39346334338188171
aF0.70516663789749146
aF0.9826388955116272
aF0.15780952572822571
aF0.94791269302368164
aF0.78206747770309448
aF0.26109522581100464
aF0.68921828269958496
aF0.37760424613952637
aF0.076472222805023193
aF0.64649206399917603
aF0.45475396513938904
aF0.41573196649551392
aF0.13525794446468353
aF0.86066669225692749
aF0.95773231983184814
aF0.86393254995346069
aF0.82734918594360352
aF0.93360316753387451
aF0.67203569412231445
aF0.47085714340209961
aF0.91962701082229614
aF0.64081746339797974
aF0.15895634889602661
aF0.98274999856948853
aF0.91384124755859375
aF0.12100937962532043
aF0.32596680521965027
aF0.052916668355464935
aF0.5396111011505127
aF0.88746392726898193
aF0.88106745481491089
aF0.98755556344985962
aF0.85929042100906372
aF0.85901981592178345
aF0.42510569095611572
aF0.84977596998214722
aF0.9803650975227356
aF0.9548412561416626
aF0.14711111783981323
aF0.51863890886306763
aF0.57290911674499512
aF0.43206095695495605
aF0.021111112087965012
aF0.83698409795761108
aF0.020479988306760788
aF0.099369049072265625
aF0.92579764127731323
aF0.11415079236030579
aF0.81813490390777588
aF0.98571425676345825
aF0.95164936780929565
aF0.091507941484451294
aF0.86080950498580933
aF0.9869999885559082
aF0.0076038618572056293
aF0.9273611307144165
aF0.8675912618637085
aF0.97695237398147583
aF0.11248698085546494
aF0.90630155801773071
aF0.034384921193122864
aF0.77025395631790161
aF0.92628568410873413
aF0.27441629767417908
aF0.089540600776672363
aF0.042166668921709061
aF0.97203570604324341
aF0.10292063653469086
aF0.16348809003829956
aF0.93819838762283325
aF0.91163492202758789
aF0.80593252182006836
aF0.86445164680480957
aF0.54669338464736938
aF0.79458236694335938
aF0.69799208641052246
aF0.75860714912414551
aF0.86196428537368774
aF0.029452381655573845
aF0.83709776401519775
aF0.1252904087305069
aF0.96689283847808838
aF0.79616665840148926
aF0.7828214168548584
aF0.37042063474655151
aF0.15448810160160065
aF0.98100000619888306
aF0.5572618842124939
aF0.59418648481369019
aF0.13134127855300903
aF0.29970309138298035
aF0.049142859876155853
aF0.17445634305477142
aF0.45112013816833496
aF0.92724204063415527
aF0.80748414993286133
aF0.11188492178916931
aF0.71996825933456421
aF0.030635608360171318
aF0.079059526324272156
aF0.34336903691291809
aF0.053956348448991776
aF0.046896826475858688
aF0.91705161333084106
aF0.042706351727247238
aF0.91805160045623779
aF0.71867460012435913
aF0.97232145071029663
aF0.88236904144287109
aF0.96744441986083984
aF0.67223811149597168
aF0.091333337128162384
aF0.80551010370254517
aF0.090738095343112946
aF0.048897977918386459
aF0.4384177029132843
aF0.78991669416427612
aF0.12284523993730545
aF0.95090872049331665
aF0.96527379751205444
aF0.84193652868270874
aF0.97590476274490356
aF0.21085137128829956
aF0.94579362869262695
aF0.68411505222320557
aF0.42068865895271301
aF0.81959521770477295
aF0.071726188063621521
aF0.99433332681655884
aF0.94428175687789917
aF0.87853968143463135
aF0.030444445088505745
aF0.96971428394317627
aF0.29432827234268188
aF0.190992072224617
aF0.90398991107940674
aF0.76232540607452393
aF0.97708332538604736
aF0.74964284896850586
aF0.48631745576858521
aF0.82086509466171265
aF0.76821029186248779
aF0.87020236253738403
aF0.91012698411941528
aF0.92665404081344604
aF0.88243252038955688
aF0.95183330774307251
aF0.98376190662384033
aF0.92395240068435669
aF0.67631745338439941
aF0.088619045913219452
aF0.33145636320114136
aF0.73202705383300781
aF0.82063096761703491
aF0.52298629283905029
aF0.22440873086452484
aF0.97644442319869995
aF0.92786109447479248
aF0.1802142858505249
aF0.95360314846038818
aF0.99033331871032715
aF0.2893928587436676
aF0.075988098978996277
aF0.98073017597198486
aF0.28849762678146362
aF0.38307070732116699
aF0.47051984071731567
aF0.14323413372039795
aF0.47853174805641174
aF0.045466423034667969
aF0.37872219085693359
aF0.036095239222049713
aF0.97708332538604736
aF0.38534921407699585
aF0.96378570795059204
aF0.92847621440887451
aF0.1628359854221344
aF0.50288093090057373
aF0.8019942045211792
aF0.74007540941238403
aF0.83595633506774902
aF0.87415081262588501
aF0.83984923362731934
aF0.11491666734218597
aF0.058412697166204453
aF0.089900791645050049
aF0.93803173303604126
aF0.26820635795593262
aF0.77043795585632324
aF0.8390079140663147
aF0.86189287900924683
aF0.39252778887748718
aF0.85251551866531372
aF0.85167062282562256
aF0.98728573322296143
aF0.74174207448959351
aF0.52684593200683594
aF0.13768145442008972
aF0.910777747631073
aF0.35624602437019348
aF0.30276888608932495
aF0.76376986503601074
aF0.40639537572860718
aF0.054816849529743195
aF0.088626988232135773
aF0.093571431934833527
aF0.9870833158493042
aF0.72801190614700317
aF0.26956349611282349
aF0.85708731412887573
aF0.96066665649414062
aF0.91116666793823242
aF0.23367460072040558
aF0.99171429872512817
aF0.54422438144683838
aF0.93579763174057007
aF0.069460317492485046
aF0.13231277465820312
aF0.28914466500282288
aF0.11346248537302017
aF0.033785715699195862
aF0.14635317027568817
aF0.97080552577972412
aF0.92208510637283325
aF0.86467063426971436
aF0.093685895204544067
aF0.79951584339141846
aF0.87631744146347046
aF0.21767677366733551
aF0.86450576782226562
aF0.81899601221084595
aF0.61478573083877563
aF0.11663492023944855
aF0.96336108446121216
aF0.91451984643936157
aF0.46827778220176697
aF0.21127778291702271
aF0.0085405409336090088
aF0.62388348579406738
aF0.010750000365078449
aF0.29314899444580078
aF0.24603968858718872
aF0.87340295314788818
aF0.12157540023326874
aF0.76445239782333374
aF0.55504113435745239
aF0.15798412263393402
aF0.81571429967880249
aF0.91761112213134766
aF0.27672618627548218
aF0.95599997043609619
aF0.11435317248106003
aF0.69897621870040894
aF0.94434124231338501
aF0.98579764366149902
aF0.32383334636688232
aF0.95311111211776733
aF0.1077800914645195
aF0.34803572297096252
aF0.83919841051101685
aF0.50179904699325562
aF0.84534525871276855
aF0.33236905932426453
aF0.045942611992359161
aF0.14663888514041901
aF0.79961109161376953
aF0.80810928344726562
aF0.32850396633148193
aF0.030837301164865494
aF0.28296896815299988
aF0.16720634698867798
aF0.095019839704036713
aF0.89678823947906494
aF0.65176951885223389
aF0.083878912031650543
aF0.57429271936416626
aF0.17938491702079773
aF0.76235711574554443
aF0.70400792360305786
aF0.41200661659240723
aF0.93568253517150879
aF0.06704365462064743
aF0.92637556791305542
aF0.91771429777145386
aF0.62205952405929565
aF0.66438889503479004
aF0.92612695693969727
aF0.80050253868103027
aF0.95262700319290161
aF0.65004366636276245
aF0.082309521734714508
aF0.37926730513572693
aF0.033150795847177505
aF0.25001984834671021
aF0.83242857456207275
aF0.45543324947357178
aF0.11843446642160416
aF0.065999068319797516
aF0.39017856121063232
aF0.89013493061065674
aF0.80135500431060791
aF0.27666667103767395
aF0.48066666722297668
aF0.9253770112991333
aF0.96414285898208618
aF0.82693648338317871
aF0.10105952620506287
aF0.96773016452789307
aF0.95084524154663086
aF0.8694920539855957
aF0.71285319328308105
aF0.058046687394380569
aF0.075361110270023346
aF0.027396654710173607
aF0.18387699127197266
aF0.91092491149902344
aF0.94293254613876343
aF0.78966665267944336
aF0.15160317718982697
aF0.95114284753799438
aF0.91280412673950195
aF0.88377779722213745
aF0.90486109256744385
aF0.78068792819976807
aF0.096615083515644073
aF0.91255557537078857
aF0.065920636057853699
aF0.8224714994430542
aF0.89040595293045044
aF0.30000123381614685
aF0.93524205684661865
aF0.92030858993530273
aF0.90036112070083618
aF0.76373809576034546
aF0.80130553245544434
aF0.81936109066009521
aF0.59988492727279663
aF0.42619985342025757
aF0.93904763460159302
aF0.46122223138809204
aF0.93439465761184692
aF0.73852634429931641
aF0.86315333843231201
aF0.20280647277832031
aF0.87428969144821167
aF0.86186110973358154
aF0.25826984643936157
aF0.511821448802948
aF0.62768650054931641
aF0.04866931214928627
aF0.70615476369857788
aF0.7410198450088501
aF0.7161327600479126
aF0.28068253397941589
aF0.91137301921844482
aF0.66264283657073975
aF0.10393650829792023
aF0.84051191806793213
aF0.32573413848876953
aF0.22439286112785339
aF0.085178568959236145
aF0.5382658839225769
aF0.39471033215522766
aF0.95951187610626221
aF0.9726032018661499
aF0.4640829861164093
aF0.88553571701049805
aF0.83647835254669189
aF0.78994840383529663
aF0.81973016262054443
aF0.76758134365081787
aF0.090345241129398346
aF0.70251297950744629
aF0.98440277576446533
aF0.39346334338188171
aF0.70516663789749146
aF0.9826388955116272
aF0.15780952572822571
aF0.94791269302368164
aF0.78206747770309448
aF0.26109522581100464
aF0.68921828269958496
aF0.37760424613952637
aF0.076472222805023193
aF0.64649206399917603
aF0.45475396513938904
aF0.41573196649551392
aF0.13525794446468353
aF0.86066669225692749
aF0.95773231983184814
aF0.86393254995346069
aF0.82734918594360352
aF0.93360316753387451
aF0.67203569412231445
aF0.47085714340209961
aF0.91962701082229614
aF0.64081746339797974
aF0.15895634889602661
aF0.98274999856948853
aF0.91384124755859375
aF0.12100937962532043
aF0.32596680521965027
aF0.052916668355464935
aF0.5396111011505127
aF0.88746392726898193
aF0.88106745481491089
aF0.98755556344985962
aF0.85929042100906372
aF0.85901981592178345
aF0.42510569095611572
aF0.84977596998214722
aF0.9803650975227356
aF0.9548412561416626
aF0.14711111783981323
aF0.51863890886306763
aF0.57290911674499512
aF0.43206095695495605
aF0.021111112087965012
aF0.83698409795761108
aF0.020479988306760788
aF0.099369049072265625
aF0.92579764127731323
aF0.11415079236030579
aF0.81813490390777588
aF0.98571425676345825
aF0.95164936780929565
aF0.091507941484451294
aF0.86080950498580933
aF0.9869999885559082
aF0.0076038618572056293
aF0.9273611307144165
aF0.8675912618637085
aF0.97695237398147583
aF0.11248698085546494
aF0.90630155801773071
aF0.034384921193122864
aF0.77025395631790161
aF0.92628568410873413
aF0.27441629767417908
aF0.089540600776672363
aF0.042166668921709061
aF0.97203570604324341
aF0.10292063653469086
aF0.16348809003829956
aF0.93819838762283325
aF0.91163492202758789
aF0.80593252182006836
aF0.86445164680480957
aF0.54669338464736938
aF0.79458236694335938
aF0.69799208641052246
aF0.75860714912414551
aF0.86196428537368774
aF0.029452381655573845
aF0.83709776401519775
aF0.1252904087305069
aF0.96689283847808838
aF0.79616665840148926
aF0.7828214168548584
aF0.37042063474655151
aF0.15448810160160065
aF0.98100000619888306
aF0.5572618842124939
aF0.59418648481369019
aF0.13134127855300903
aF0.29970309138298035
aF0.049142859876155853
aF0.17445634305477142
aF0.45112013816833496
aF0.92724204063415527
aF0.80748414993286133
aF0.11188492178916931
aF0.71996825933456421
aF0.030635608360171318
aF0.079059526324272156
aF0.34336903691291809
aF0.053956348448991776
aF0.046896826475858688
aF0.91705161333084106
aF0.042706351727247238
aF0.91805160045623779
aF0.71867460012435913
aF0.97232145071029663
aF0.88236904144287109
aF0.96744441986083984
aF0.67223811149597168
aF0.091333337128162384
aF0.80551010370254517
aF0.090738095343112946
aF0.048897977918386459
aF0.4384177029132843
aF0.78991669416427612
aF0.12284523993730545
aF0.95090872049331665
aF0.96527379751205444
aF0.84193652868270874
aF0.97590476274490356
aF0.21085137128829956
aF0.94579362869262695
aF0.68411505222320557
aF0.42068865895271301
aF0.81959521770477295
aF0.071726188063621521
aF0.99433332681655884
aF0.94428175687789917
aF0.87853968143463135
aF0.030444445088505745
aF0.96971428394317627
aF0.29432827234268188
aF0.190992072224617
aF0.90398991107940674
aF0.76232540607452393
aF0.97708332538604736
aF0.74964284896850586
aF0.48631745576858521
aF0.82086509466171265
aF0.76821029186248779
aF0.87020236253738403
aF0.91012698411941528
aF0.92665404081344604
aF0.88243252038955688
aF0.95183330774307251
aF0.98376190662384033
aF0.92395240068435669
aF0.67631745338439941
aF0.088619045913219452
aF0.33145636320114136
aF0.73202705383300781
aF0.82063096761703491
aF0.52298629283905029
aF0.22440873086452484
aF0.97644442319869995
aF0.92786109447479248
aF0.1802142858505249
aF0.95360314846038818
aF0.99033331871032715
aF0.2893928587436676
aF0.075988098978996277
aF0.98073017597198486
aF0.28849762678146362
aF0.38307070732116699
aF0.47051984071731567
aF0.14323413372039795
aF0.47853174805641174
aF0.045466423034667969
aF0.37872219085693359
aF0.036095239222049713
aF0.97708332538604736
aF0.38534921407699585
aF0.96378570795059204
aF0.92847621440887451
aF0.1628359854221344
aF0.50288093090057373
aF0.8019942045211792
aF0.74007540941238403
aF0.83595633506774902
aF0.87415081262588501
aF0.83984923362731934
aF0.11491666734218597
aF0.058412697166204453
aF0.089900791645050049
aF0.93803173303604126
aF0.26820635795593262
aF0.77043795585632324
aF0.8390079140663147
aF0.86189287900924683
aF0.39252778887748718
aF0.85251551866531372
aF0.85167062282562256
aF0.98728573322296143
aF0.74174207448959351
aF0.52684593200683594
aF0.13768145442008972
aF0.910777747631073
aF0.35624602437019348
aF0.30276888608932495
aF0.76376986503601074
aF0.40639537572860718
aF0.054816849529743195
aF0.088626988232135773
aF0.093571431934833527
aF0.9870833158493042
aF0.72801190614700317
aF0.26956349611282349
aF0.85708731412887573
aF0.96066665649414062
aF0.91116666793823242
aF0.23367460072040558
aF0.99171429872512817
aF0.54422438144683838
aF0.93579763174057007
aF0.069460317492485046
aF0.13231277465820312
aF0.28914466500282288
aF0.11346248537302017
aF0.033785715699195862
aF0.14635317027568817
aF0.97080552577972412
aF0.92208510637283325
aF0.86467063426971436
aF0.093685895204544067
aF0.79951584339141846
aF0.87631744146347046
aF0.21767677366733551
aF0.86450576782226562
aF0.81899601221084595
aF0.61478573083877563
aF0.11663492023944855
aF0.96336108446121216
aF0.91451984643936157
aF0.46827778220176697
aF0.21127778291702271
aF0.0085405409336090088
aF0.62388348579406738
aF0.010750000365078449
aF0.29314899444580078
aF0.24603968858718872
aF0.87340295314788818
aF0.12157540023326874
aF0.76445239782333374
aF0.55504113435745239
aF0.15798412263393402
aF0.81571429967880249
aF0.91761112213134766
aF0.27672618627548218
aF0.95599997043609619
aF0.11435317248106003
aF0.69897621870040894
aF0.94434124231338501
aF0.98579764366149902
aF0.32383334636688232
aF0.95311111211776733
aF0.1077800914645195
aF0.34803572297096252
aF0.83919841051101685
aF0.50179904699325562
aF0.84534525871276855
aF0.33236905932426453
aF0.045942611992359161
aF0.14663888514041901
aF0.79961109161376953
aF0.80810928344726562
aF0.32850396633148193
aF0.030837301164865494
aF0.28296896815299988
aF0.16720634698867798
aF0.095019839704036713
aF0.89678823947906494
aF0.65176951885223389
aF0.083878912031650543
aF0.57429271936416626
aF0.17938491702079773
aF0.76235711574554443
aF0.70400792360305786
aF0.41200661659240723
aF0.93568253517150879
aF0.06704365462064743
aF0.92637556791305542
aF0.91771429777145386
aF0.62205952405929565
aF0.66438889503479004
aF0.92612695693969727
aF0.80050253868103027
aF0.95262700319290161
aF0.65004366636276245
aF0.082309521734714508
aF0.37926730513572693
aF0.033150795847177505
aF0.25001984834671021
aF0.83242857456207275
aF0.45543324947357178
aF0.11843446642160416
aF0.065999068319797516
aF0.39017856121063232
aF0.89013493061065674
aF0.80135500431060791
aF0.27666667103767395
aF0.48066666722297668
aF0.9253770112991333
aF0.96414285898208618
aF0.82693648338317871
aF0.10105952620506287
aF0.96773016452789307
aF0.95084524154663086
aF0.8694920539855957
aF0.71285319328308105
aF0.058046687394380569
aF0.075361110270023346
aF0.027396654710173607
aF0.18387699127197266
aF0.91092491149902344
aF0.94293254613876343
aF0.78966665267944336
aF0.15160317718982697
aF0.95114284753799438
aF0.91280412673950195
aF0.88377779722213745
aF0.90486109256744385
aF0.78068792819976807
aF0.096615083515644073
aF0.91255557537078857
aF0.065920636057853699
aF0.8224714994430542
aF0.89040595293045044
aF0.30000123381614685
aF0.93524205684661865
aF0.92030858993530273
aF0.90036112070083618
aF0.76373809576034546
aF0.80130553245544434
aF0.81936109066009521
aF0.59988492727279663
aF0.42619985342025757
aF0.93904763460159302
aF0.46122223138809204
aF0.93439465761184692
aF0.73852634429931641
aF0.86315333843231201
aF0.20280647277832031
aF0.87428969144821167
aF0.86186110973358154
aF0.25826984643936157
aF0.511821448802948
aF0.62768650054931641
aF0.04866931214928627
aF0.70615476369857788
aF0.7410198450088501
aF0.7161327600479126
aF0.28068253397941589
aF0.91137301921844482
aF0.66264283657073975
aF0.10393650829792023
aF0.84051191806793213
aF0.32573413848876953
aF0.22439286112785339
aF0.085178568959236145
aF0.5382658839225769
aF0.39471033215522766
aF0.95951187610626221
aF0.9726032018661499
aF0.4640829861164093
aF0.88553571701049805
aF0.83647835254669189
aF0.78994840383529663
aF0.81973016262054443
aF0.76758134365081787
aF0.090345241129398346
aF0.70251297950744629
aF0.98440277576446533
aF0.39346334338188171
aF0.70516663789749146
aF0.9826388955116272
aF0.15780952572822571
aF0.94791269302368164
aF0.78206747770309448
aF0.26109522581100464
aF0.68921828269958496
aF0.37760424613952637
aF0.076472222805023193
aF0.64649206399917603
aF0.45475396513938904
aF0.41573196649551392
aF0.13525794446468353
aF0.86066669225692749
aF0.95773231983184814
aF0.86393254995346069
aF0.82734918594360352
aF0.93360316753387451
aF0.67203569412231445
aF0.47085714340209961
aF0.91962701082229614
aF0.64081746339797974
aF0.15895634889602661
aF0.98274999856948853
aF0.91384124755859375
aF0.12100937962532043
aF0.32596680521965027
aF0.052916668355464935
aF0.5396111011505127
aF0.88746392726898193
aF0.88106745481491089
aF0.98755556344985962
aF0.85929042100906372
aF0.85901981592178345
aF0.42510569095611572
aF0.84977596998214722
aF0.9803650975227356
aF0.9548412561416626
aF0.14711111783981323
aF0.51863890886306763
aF0.57290911674499512
aF0.43206095695495605
aF0.021111112087965012
aF0.83698409795761108
aF0.020479988306760788
aF0.099369049072265625
aF0.92579764127731323
aF0.11415079236030579
aF0.81813490390777588
aF0.98571425676345825
aF0.95164936780929565
aF0.091507941484451294
aF0.86080950498580933
aF0.9869999885559082
aF0.0076038618572056293
aF0.9273611307144165
aF0.8675912618637085
aF0.97695237398147583
aF0.11248698085546494
aF0.90630155801773071
aF0.034384921193122864
aF0.77025395631790161
aF0.92628568410873413
aF0.27441629767417908
aF0.089540600776672363
aF0.042166668921709061
aF0.97203570604324341
aF0.10292063653469086
aF0.16348809003829956
aF0.93819838762283325
aF0.91163492202758789
aF0.80593252182006836
aF0.86445164680480957
aF0.54669338464736938
aF0.79458236694335938
aF0.69799208641052246
aF0.75860714912414551
aF0.86196428537368774
aF0.029452381655573845
aF0.83709776401519775
aF0.1252904087305069
aF0.96689283847808838
aF0.79616665840148926
aF0.7828214168548584
aF0.37042063474655151
aF0.15448810160160065
aF0.98100000619888306
aF0.5572618842124939
aF0.59418648481369019
aF0.13134127855300903
aF0.29970309138298035
aF0.049142859876155853
aF0.17445634305477142
aF0.45112013816833496
aF0.92724204063415527
aF0.80748414993286133
aF0.11188492178916931
aF0.71996825933456421
aF0.030635608360171318
aF0.079059526324272156
aF0.34336903691291809
aF0.053956348448991776
aF0.046896826475858688
aF0.91705161333084106
aF0.042706351727247238
aF0.91805160045623779
aF0.71867460012435913
aF0.97232145071029663
aF0.88236904144287109
aF0.96744441986083984
aF0.67223811149597168
aF0.091333337128162384
aF0.80551010370254517
aF0.090738095343112946
aF0.048897977918386459
aF0.4384177029132843
aF0.78991669416427612
aF0.12284523993730545
aF0.95090872049331665
aF0.96527379751205444
aF0.84193652868270874
aF0.97590476274490356
aF0.21085137128829956
aF0.94579362869262695
aF0.68411505222320557
aF0.42068865895271301
aF0.81959521770477295
aF0.071726188063621521
aF0.99433332681655884
aF0.94428175687789917
aF0.87853968143463135
aF0.030444445088505745
aF0.96971428394317627
aF0.29432827234268188
aF0.190992072224617
aF0.90398991107940674
aF0.76232540607452393
aF0.97708332538604736
aF0.74964284896850586
aF0.48631745576858521
aF0.82086509466171265
aF0.76821029186248779
aF0.87020236253738403
aF0.91012698411941528
aF0.92665404081344604
aF0.88243252038955688
aF0.95183330774307251
aF0.98376190662384033
aF0.92395240068435669
aF0.67631745338439941
aF0.088619045913219452
aF0.33145636320114136
aF0.73202705383300781
aF0.82063096761703491
aF0.52298629283905029
aF0.22440873086452484
aF0.97644442319869995
aF0.92786109447479248
aF0.1802142858505249
aF0.95360314846038818
aF0.99033331871032715
aF0.2893928587436676
aF0.075988098978996277
aF0.98073017597198486
aF0.28849762678146362
aF0.38307070732116699
aF0.47051984071731567
aF0.14323413372039795
aF0.47853174805641174
aF0.045466423034667969
aF0.37872219085693359
aF0.036095239222049713
aF0.97708332538604736
aF0.38534921407699585
aF0.96378570795059204
aF0.92847621440887451
aF0.1628359854221344
aF0.50288093090057373
aF0.8019942045211792
aF0.74007540941238403
aF0.83595633506774902
aF0.87415081262588501
aF0.83984923362731934
aF0.11491666734218597
aF0.058412697166204453
aF0.089900791645050049
aF0.93803173303604126
aF0.26820635795593262
aF0.77043795585632324
aF0.8390079140663147
aF0.86189287900924683
aF0.39252778887748718
aF0.85251551866531372
aF0.85167062282562256
aF0.98728573322296143
aF0.74174207448959351
aF0.52684593200683594
aF0.13768145442008972
aF0.910777747631073
aF0.35624602437019348
aF0.30276888608932495
aF0.76376986503601074
aF0.40639537572860718
aF0.054816849529743195
aF0.088626988232135773
aF0.093571431934833527
aF0.9870833158493042
aF0.72801190614700317
aF0.26956349611282349
aF0.85708731412887573
aF0.96066665649414062
aF0.91116666793823242
aF0.23367460072040558
aF0.99171429872512817
aF0.54422438144683838
aF0.93579763174057007
aF0.069460317492485046
aF0.13231277465820312
aF0.28914466500282288
aF0.11346248537302017
aF0.033785715699195862
aF0.14635317027568817
aF0.97080552577972412
aF0.92208510637283325
aF0.86467063426971436
aF0.093685895204544067
aF0.79951584339141846
aF0.87631744146347046
aF0.21767677366733551
aF0.86450576782226562
aF0.81899601221084595
aF0.61478573083877563
aF0.11663492023944855
aF0.96336108446121216
aF0.91451984643936157
aF0.46827778220176697
aF0.21127778291702271
aF0.0085405409336090088
aF0.62388348579406738
aF0.010750000365078449
aF0.29314899444580078
aF0.24603968858718872
aF0.87340295314788818
aF0.12157540023326874
aF0.76445239782333374
aF0.55504113435745239
aF0.15798412263393402
aF0.81571429967880249
aF0.91761112213134766
aF0.27672618627548218
aF0.95599997043609619
aF0.11435317248106003
aF0.69897621870040894
aF0.94434124231338501
aF0.98579764366149902
aF0.32383334636688232
aF0.95311111211776733
aF0.1077800914645195
aF0.34803572297096252
aF0.83919841051101685
aF0.50179904699325562
aF0.84534525871276855
aF0.33236905932426453
aF0.045942611992359161
aF0.14663888514041901
aF0.79961109161376953
aF0.80810928344726562
aF0.32850396633148193
aF0.030837301164865494
aF0.28296896815299988
aF0.16720634698867798
aF0.095019839704036713
aF0.89678823947906494
aF0.65176951885223389
aF0.083878912031650543
aF0.57429271936416626
aF0.17938491702079773
aF0.76235711574554443
aF0.70400792360305786
aF0.41200661659240723
aF0.93568253517150879
aF0.06704365462064743
aF0.92637556791305542
aF0.91771429777145386
aF0.62205952405929565
aF0.66438889503479004
aF0.92612695693969727
aF0.80050253868103027
aF0.95262700319290161
aF0.65004366636276245
aF0.082309521734714508
aF0.37926730513572693
aF0.033150795847177505
aF0.25001984834671021
aF0.83242857456207275
aF0.45543324947357178
aF0.11843446642160416
aF0.065999068319797516
aF0.39017856121063232
aF0.89013493061065674
aF0.80135500431060791
aF0.27666667103767395
aF0.48066666722297668
aF0.9253770112991333
aF0.96414285898208618
aF0.82693648338317871
aF0.10105952620506287
aF0.96773016452789307
aF0.95084524154663086
aF0.8694920539855957
aF0.71285319328308105
aF0.058046687394380569
aF0.075361110270023346
aF0.027396654710173607
aF0.18387699127197266
aF0.91092491149902344
aF0.94293254613876343
aF0.78966665267944336
aF0.15160317718982697
aF0.95114284753799438
aF0.91280412673950195
aF0.88377779722213745
aF0.90486109256744385
aF0.78068792819976807
aF0.096615083515644073
aF0.91255557537078857
aF0.065920636057853699
aF0.8224714994430542
aF0.89040595293045044
aF0.30000123381614685
aF0.93524205684661865
aF0.92030858993530273
aF0.90036112070083618
aF0.76373809576034546
aF0.80130553245544434
aF0.81936109066009521
aF0.59988492727279663
aF0.42619985342025757
aF0.93904763460159302
aF0.46122223138809204
aF0.93439465761184692
aF0.73852634429931641
aF0.86315333843231201
aF0.20280647277832031
aF0.87428969144821167
aF0.86186110973358154
aF0.25826984643936157
aF0.511821448802948
aF0.62768650054931641
aF0.04866931214928627
aF0.70615476369857788
aF0.7410198450088501
aF0.7161327600479126
aF0.28068253397941589
aF0.91137301921844482
aF0.66264283657073975
aF0.10393650829792023
aF0.84051191806793213
aF0.32573413848876953
aF0.22439286112785339
aF0.085178568959236145
aF0.5382658839225769
aF0.39471033215522766
aF0.95951187610626221
aF0.9726032018661499
aF0.4640829861164093
aF0.88553571701049805
aF0.83647835254669189
aF0.78994840383529663
aF0.81973016262054443
aF0.76758134365081787
aF0.090345241129398346
aF0.70251297950744629
aF0.98440277576446533
aF0.39346334338188171
aF0.70516663789749146
aF0.9826388955116272
aF0.15780952572822571
aF0.94791269302368164
aF0.78206747770309448
aF0.26109522581100464
aF0.68921828269958496
aF0.37760424613952637
aF0.076472222805023193
aF0.64649206399917603
aF0.45475396513938904
aF0.41573196649551392
aF0.13525794446468353
aF0.86066669225692749
aF0.95773231983184814
aF0.86393254995346069
aF0.82734918594360352
aF0.93360316753387451
aF0.67203569412231445
aF0.47085714340209961
aF0.91962701082229614
aF0.64081746339797974
aF0.15895634889602661
aF0.98274999856948853
aF0.91384124755859375
aF0.12100937962532043
aF0.32596680521965027
aF0.052916668355464935
aF0.5396111011505127
aF0.88746392726898193
aF0.88106745481491089
aF0.98755556344985962
aF0.85929042100906372
aF0.85901981592178345
aF0.42510569095611572
aF0.84977596998214722
aF0.9803650975227356
aF0.9548412561416626
aF0.14711111783981323
aF0.51863890886306763
aF0.57290911674499512
aF0.43206095695495605
aF0.021111112087965012
aF0.83698409795761108
aF0.020479988306760788
aF0.099369049072265625
aF0.92579764127731323
aF0.11415079236030579
aF0.81813490390777588
aF0.98571425676345825
aF0.95164936780929565
aF0.091507941484451294
aF0.86080950498580933
aF0.9869999885559082
aF0.0076038618572056293
aF0.9273611307144165
aF0.8675912618637085
aF0.97695237398147583
aF0.11248698085546494
aF0.90630155801773071
aF0.034384921193122864
aF0.77025395631790161
aF0.92628568410873413
aF0.27441629767417908
aF0.089540600776672363
aF0.042166668921709061
aF0.97203570604324341
aF0.10292063653469086
aF0.16348809003829956
aF0.93819838762283325
aF0.91163492202758789
aF0.80593252182006836
aF0.86445164680480957
aF0.54669338464736938
aF0.79458236694335938
aF0.69799208641052246
aF0.75860714912414551
aF0.86196428537368774
aF0.029452381655573845
aF0.83709776401519775
aF0.1252904087305069
aF0.96689283847808838
aF0.79616665840148926
aF0.7828214168548584
aF0.37042063474655151
aF0.15448810160160065
aF0.98100000619888306
aF0.5572618842124939
aF0.59418648481369019
aF0.13134127855300903
aF0.29970309138298035
aF0.049142859876155853
aF0.17445634305477142
aF0.45112013816833496
aF0.92724204063415527
aF0.80748414993286133
aF0.11188492178916931
aF0.71996825933456421
aF0.030635608360171318
aF0.079059526324272156
aF0.34336903691291809
aF0.053956348448991776
aF0.046896826475858688
aF0.91705161333084106
aF0.042706351727247238
aF0.91805160045623779
aF0.71867460012435913
aF0.97232145071029663
aF0.88236904144287109
aF0.96744441986083984
aF0.67223811149597168
aF0.091333337128162384
aF0.80551010370254517
aF0.090738095343112946
aF0.048897977918386459
aF0.4384177029132843
aF0.78991669416427612
aF0.12284523993730545
aF0.95090872049331665
aF0.96527379751205444
aF0.84193652868270874
aF0.97590476274490356
aF0.21085137128829956
aF0.94579362869262695
aF0.68411505222320557
aF0.42068865895271301
aF0.81959521770477295
aF0.071726188063621521
aF0.99433332681655884
aF0.94428175687789917
aF0.87853968143463135
aF0.030444445088505745
aF0.96971428394317627
aF0.29432827234268188
aF0.190992072224617
aF0.90398991107940674
aF0.76232540607452393
aF0.97708332538604736
aF0.74964284896850586
aF0.48631745576858521
aF0.82086509466171265
aF0.76821029186248779
aF0.87020236253738403
aF0.91012698411941528
aF0.92665404081344604
aF0.88243252038955688
aF0.95183330774307251
aF0.98376190662384033
aF0.92395240068435669
aF0.67631745338439941
aF0.088619045913219452
aF0.33145636320114136
aF0.73202705383300781
aF0.82063096761703491
aF0.52298629283905029
aF0.22440873086452484
aF0.97644442319869995
aF0.92786109447479248
aF0.1802142858505249
aF0.95360314846038818
aF0.99033331871032715
aF0.2893928587436676
aF0.075988098978996277
aF0.98073017597198486
aF0.28849762678146362
aF0.38307070732116699
aF0.47051984071731567
aF0.14323413372039795
aF0.47853174805641174
aF0.045466423034667969
aF0.37872219085693359
aF0.036095239222049713
aF0.97708332538604736
aF0.38534921407699585
aF0.96378570795059204
aF0.92847621440887451
aF0.1628359854221344
aF0.50288093090057373
aF0.8019942045211792
aF0.74007540941238403
aF0.83595633506774902
aF0.87415081262588501
aF0.83984923362731934
aF0.11491666734218597
aF0.058412697166204453
aF0.089900791645050049
aF0.93803173303604126
aF0.26820635795593262
aF0.77043795585632324
aF0.8390079140663147
aF0.86189287900924683
aF0.39252778887748718
aF0.85251551866531372
aF0.85167062282562256
aF0.98728573322296143
aF0.74174207448959351
aF0.52684593200683594
aF0.13768145442008972
aF0.910777747631073
aF0.35624602437019348
aF0.30276888608932495
aF0.76376986503601074
aF0.40639537572860718
aF0.054816849529743195
aF0.088626988232135773
aF0.093571431934833527
aF0.9870833158493042
aF0.72801190614700317
aF0.26956349611282349
aF0.85708731412887573
aF0.96066665649414062
aF0.91116666793823242
aF0.23367460072040558
aF0.99171429872512817
aF0.54422438144683838
aF0.93579763174057007
aF0.069460317492485046
aF0.13231277465820312
aF0.28914466500282288
aF0.11346248537302017
aF0.033785715699195862
aF0.14635317027568817
aF0.97080552577972412
aF0.92208510637283325
aF0.86467063426971436
aF0.093685895204544067
aF0.79951584339141846
aF0.87631744146347046
aF0.21767677366733551
aF0.86450576782226562
aF0.81899601221084595
aF0.61478573083877563
aF0.11663492023944855
aF0.96336108446121216
aF0.91451984643936157
aF0.46827778220176697
aF0.21127778291702271
aF0.0085405409336090088
aF0.62388348579406738
aF0.010750000365078449
aF0.29314899444580078
aF0.24603968858718872
aF0.87340295314788818
aF0.12157540023326874
aF0.76445239782333374
aF0.55504113435745239
aF0.15798412263393402
aF0.81571429967880249
aF0.91761112213134766
aF0.27672618627548218
aF0.95599997043609619
aF0.11435317248106003
aF0.69897621870040894
aF0.94434124231338501
aF0.98579764366149902
aF0.32383334636688232
aF0.95311111211776733
aF0.1077800914645195
aF0.34803572297096252
aF0.83919841051101685
aF0.50179904699325562
aF0.84534525871276855
aF0.33236905932426453
aF0.045942611992359161
aF0.14663888514041901
aF0.79961109161376953
aF0.80810928344726562
aF0.32850396633148193
aF0.030837301164865494
aF0.28296896815299988
aF0.16720634698867798
aF0.095019839704036713
aF0.89678823947906494
aF0.65176951885223389
aF0.083878912031650543
aF0.57429271936416626
aF0.17938491702079773
aF0.76235711574554443
aF0.70400792360305786
aF0.41200661659240723
aF0.93568253517150879
aF0.06704365462064743
aF0.92637556791305542
aF0.91771429777145386
aF0.62205952405929565
aF0.66438889503479004
aF0.92612695693969727
aF0.80050253868103027
aF0.95262700319290161
aF0.65004366636276245
aF0.082309521734714508
aF0.37926730513572693
aF0.033150795847177505
aF0.25001984834671021
aF0.83242857456207275
aF0.45543324947357178
aF0.11843446642160416
aF0.065999068319797516
aF0.39017856121063232
aF0.89013493061065674
aF0.80135500431060791
aF0.27666667103767395
aF0.48066666722297668
aF0.9253770112991333
aF0.96414285898208618
aF0.82693648338317871
aF0.10105952620506287
aF0.96773016452789307
aF0.95084524154663086
aF0.8694920539855957
aF0.71285319328308105
aF0.058046687394380569
aF0.075361110270023346
aF0.027396654710173607
aF0.18387699127197266
aF0.91092491149902344
aF0.94293254613876343
aF0.78966665267944336
aF0.15160317718982697
aF0.95114284753799438
aF0.91280412673950195
aF0.88377779722213745
aF0.90486109256744385
aF0.78068792819976807
aF0.096615083515644073
aF0.91255557537078857
aF0.065920636057853699
aF0.8224714994430542
aF0.89040595293045044
aF0.30000123381614685
aF0.93524205684661865
aF0.92030858993530273
aF0.90036112070083618
aF0.76373809576034546
aF0.80130553245544434
aF0.81936109066009521
aF0.59988492727279663
aF0.42619985342025757
aF0.93904763460159302
aF0.46122223138809204
aF0.93439465761184692
aF0.73852634429931641
aF0.86315333843231201
aF0.20280647277832031
aF0.87428969144821167
aF0.86186110973358154
aF0.25826984643936157
aF0.511821448802948
aF0.62768650054931641
aF0.04866931214928627
aF0.70615476369857788
aF0.7410198450088501
aF0.7161327600479126
aF0.28068253397941589
aF0.91137301921844482
aF0.66264283657073975
aF0.10393650829792023
aF0.84051191806793213
aF0.32573413848876953
aF0.22439286112785339
aF0.085178568959236145
aF0.5382658839225769
aF0.39471033215522766
aF0.95951187610626221
aF0.9726032018661499
aF0.4640829861164093
aF0.88553571701049805
aF0.83647835254669189
aF0.78994840383529663
aF0.81973016262054443
aF0.76758134365081787
aF0.090345241129398346
aF0.70251297950744629
aF0.98440277576446533
aF0.39346334338188171
aF0.70516663789749146
aF0.9826388955116272
aF0.15780952572822571
aF0.94791269302368164
aF0.78206747770309448
aF0.26109522581100464
aF0.68921828269958496
aF0.37760424613952637
aF0.076472222805023193
aF0.64649206399917603
aF0.45475396513938904
aF0.41573196649551392
aF0.13525794446468353
aF0.86066669225692749
aF0.95773231983184814
aF0.86393254995346069
aF0.82734918594360352
aF0.93360316753387451
aF0.67203569412231445
aF0.47085714340209961
aF0.91962701082229614
aF0.64081746339797974
aF0.15895634889602661
aF0.98274999856948853
aF0.91384124755859375
aF0.12100937962532043
aF0.32596680521965027
aF0.052916668355464935
aF0.5396111011505127
aF0.88746392726898193
aF0.88106745481491089
aF0.98755556344985962
aF0.85929042100906372
aF0.85901981592178345
aF0.42510569095611572
aF0.84977596998214722
aF0.9803650975227356
aF0.9548412561416626
aF0.14711111783981323
aF0.51863890886306763
aF0.57290911674499512
aF0.43206095695495605
aF0.021111112087965012
aF0.83698409795761108
aF0.020479988306760788
aF0.099369049072265625
aF0.92579764127731323
aF0.11415079236030579
aF0.81813490390777588
aF0.98571425676345825
aF0.95164936780929565
aF0.091507941484451294
aF0.86080950498580933
aF0.9869999885559082
aF0.0076038618572056293
aF0.9273611307144165
aF0.8675912618637085
aF0.97695237398147583
aF0.11248698085546494
aF0.90630155801773071
aF0.034384921193122864
aF0.77025395631790161
aF0.92628568410873413
aF0.27441629767417908
aF0.089540600776672363
aF0.042166668921709061
aF0.97203570604324341
aF0.10292063653469086
aF0.16348809003829956
aF0.93819838762283325
aF0.91163492202758789
aF0.80593252182006836
aF0.86445164680480957
aF0.54669338464736938
aF0.79458236694335938
aF0.69799208641052246
aF0.75860714912414551
aF0.86196428537368774
aF0.029452381655573845
aF0.83709776401519775
aF0.1252904087305069
aF0.96689283847808838
aF0.79616665840148926
aF0.7828214168548584
aF0.37042063474655151
aF0.15448810160160065
aF0.98100000619888306
aF0.5572618842124939
aF0.59418648481369019
aF0.13134127855300903
aF0.29970309138298035
aF0.049142859876155853
aF0.17445634305477142
aF0.45112013816833496
a.